(lp1
(V\u7684
I2614411
tp2
a(V\u4e00
I790417
tp3
a(V\u662f
I734637
tp4
a(V\u5728
I723880
tp5
a(V\u6211
I669018
tp6
a(V\u6709
I576381
tp7
a(V\u4e0d
I547520
tp8
a(V\u4e86
I546106
tp9
a(V\u56fd
I513463
tp10
a(V\u4eba
I505931
tp11
a(V\u8fd9
I502823
tp12
a(V\u4eec
I430750
tp13
a(V\u4e2d
I418819
tp14
a(V\u4f60
I417771
tp15
a(V\u4f1a
I397218
tp16
a(V\u4ed6
I391180
tp17
a(V\u4e2a
I382328
tp18
a(V\u4e3a
I377519
tp19
a(V\u5e74
I363145
tp20
a(V\u548c
I338839
tp21
a(V\u4e0a
I323852
tp22
a(V\u5927
I319954
tp23
a(V\u4ee5
I315630
tp24
a(V\u884c
I313773
tp25
a(V\u53ef
I301222
tp26
a(V\u6765
I280024
tp27
a(V\u65f6
I279178
tp28
a(V\u80fd
I274636
tp29
a(V\u8981
I263310
tp30
a(V\u5230
I260248
tp31
a(V\u5bf9
I256544
tp32
a(V\u4e8e
I247038
tp33
a(V\u51fa
I245720
tp34
a(V\u53ca
I241095
tp35
a(V\u5730
I216612
tp36
a(V\u53d1
I210365
tp37
a(V\u516c
I209448
tp38
a(V\u5bb6
I206874
tp39
a(V\u751f
I204933
tp40
a(V\u8d44
I201986
tp41
a(V\u5c31
I200224
tp42
a(V\u65e5
I199727
tp43
a(V\u8fc7
I196571
tp44
a(V\u7528
I195348
tp45
a(V\u7ecf
I194714
tp46
a(V\u7f8e
I189210
tp47
a(V\u4e1a
I186451
tp48
a(V\u4e0b
I184112
tp49
a(V\u591a
I183947
tp50
a(V\u800c
I180856
tp51
a(V\u4f5c
I179543
tp52
a(V\u6708
I178824
tp53
a(V\u5f97
I177091
tp54
a(V\u5982
I176661
tp55
a(V\u672c
I176158
tp56
a(V\u6210
I173664
tp57
a(V\u5176
I172474
tp58
a(V\u4e8b
I171116
tp59
a(V\u4e48
I170584
tp60
a(V\u6240
I169846
tp61
a(V\u8bf4
I168607
tp62
a(V\u4e9b
I168252
tp63
a(V\u5c06
I168004
tp64
a(V\u73b0
I167225
tp65
a(V\u8868
I165306
tp66
a(V\u5b66
I163389
tp67
a(V\u4f46
I162083
tp68
a(V\u653f
I161350
tp69
a(V\u81ea
I158894
tp70
a(V\u5de5
I157758
tp71
a(V\u90a3
I157537
tp72
a(V\u91d1
I155710
tp73
a(V\u65b9
I152391
tp74
a(V\u52a8
I151102
tp75
a(V\u8005
I150547
tp76
a(V\u6700
I148014
tp77
a(V\u4e5f
I147138
tp78
a(V\u5206
I145976
tp79
a(V\u4e0e
I144723
tp80
a(V\u4e4b
I144049
tp81
a(V\u597d
I144043
tp82
a(V\u52a1
I143762
tp83
a(V\u540e
I143221
tp84
a(V\u7406
I141478
tp85
a(V\u5f00
I139389
tp86
a(V\u957f
I138962
tp87
a(V\u671f
I138939
tp88
a(V\u5b9a
I138398
tp89
a(V\u5173
I138237
tp90
a(V\u524d
I137730
tp91
a(V\u6e2f
I136861
tp92
a(V\u673a
I136165
tp93
a(V\u65b0
I135521
tp94
a(V\u6ca1
I133521
tp95
a(V\u6cd5
I133449
tp96
a(V\u573a
I132265
tp97
a(V\u6216
I130386
tp98
a(V\u5e02
I129761
tp99
a(V\u8fdb
I129515
tp100
a(V\u90fd
I128590
tp101
a(V\u63d0
I128482
tp102
a(V\u9053
I127654
tp103
a(V\u5168
I126613
tp104
a(V\u53bb
I124922
tp105
a(V\u5b50
I124378
tp106
a(V\u540c
I123043
tp107
a(V\u9762
I123031
tp108
a(V\u7ba1
I122857
tp109
a(V\u5229
I122686
tp110
a(V\u8fd8
I122472
tp111
a(V\u8ba1
I121986
tp112
a(V\u91cc
I121735
tp113
a(V\u5916
I121433
tp114
a(V\u5408
I121303
tp115
a(V\u529b
I119836
tp116
a(V\u66f4
I119247
tp117
a(V\u610f
I118523
tp118
a(V\u5458
I118125
tp119
a(V\u56e0
I117979
tp120
a(V\u9ad8
I117057
tp121
a(V\u5f53
I116576
tp122
a(V\u53f8
I116049
tp123
a(V\u5e76
I115751
tp124
a(V\u4e3b
I115092
tp125
a(V\u52a0
I114500
tp126
a(V\u7535
I113197
tp127
a(V\u4ea7
I113072
tp128
a(V\u5f88
I112663
tp129
a(V\u793a
I112414
tp130
a(V\u7269
I112267
tp131
a(V\u90e8
I111813
tp132
a(V\u4e8c
I111445
tp133
a(V\u95f4
I111304
tp134
a(V\u5df2
I110981
tp135
a(V\u65af
I110809
tp136
a(V\u79cd
I110435
tp137
a(V\u6b64
I108813
tp138
a(V\u7136
I108766
tp139
a(V\u5143
I108592
tp140
a(V\u5236
I108592
tp141
a(V\u8be5
I108518
tp142
a(V\u5b83
I108248
tp143
a(V\u5ea6
I107794
tp144
a(V\u6570
I106850
tp145
a(V\u679c
I106701
tp146
a(V\u6837
I106368
tp147
a(V\u81f3
I105882
tp148
a(V\u5b9e
I105750
tp149
a(V\u5fc3
I105256
tp150
a(V\u60f3
I105203
tp151
a(V\u9999
I104962
tp152
a(V\u5e94
I104648
tp153
a(V\u5185
I104624
tp154
a(V\u901a
I103440
tp155
a(V\u5c0f
I102905
tp156
a(V\u6587
I102659
tp157
a(V\u660e
I102055
tp158
a(V\u7740
I102002
tp159
a(V\u91cd
I101913
tp160
a(V\u6b63
I101349
tp161
a(V\u4ea4
I101202
tp162
a(V\u770b
I100402
tp163
a(V\u5979
I99827
tp164
a(V\u76ee
I98604
tp165
a(V\u4f53
I97790
tp166
a(V\u4fdd
I97779
tp167
a(V\u6027
I96729
tp168
a(V\u5341
I95913
tp169
a(V\u7279
I95585
tp170
a(V\u7b2c
I95345
tp171
a(V\u4ec0
I93835
tp172
a(V\u5165
I93695
tp173
a(V\u533a
I93271
tp174
a(V\u6bd4
I92381
tp175
a(V\u95ee
I92304
tp176
a(V\u8bc1
I91787
tp177
a(V\u4ece
I91759
tp178
a(V\u8d77
I91590
tp179
a(V\u7531
I91561
tp180
a(V\u60c5
I91178
tp181
a(V\u5929
I90937
tp182
a(V\u70b9
I90766
tp183
a(V\u77e5
I90558
tp184
a(V\u76f8
I89741
tp185
a(V\u57fa
I88249
tp186
a(V\u7a0b
I87452
tp187
a(V\u5c14
I86398
tp188
a(V\u4f7f
I86052
tp189
a(V\u6295
I85954
tp190
a(V\u5904
I85626
tp191
a(V\u54c1
I84673
tp192
a(V\u6301
I84229
tp193
a(V\u4f4d
I83907
tp194
a(V\u53ea
I83574
tp195
a(V\u5316
I83493
tp196
a(V\u53d7
I83444
tp197
a(V\u4fe1
I82712
tp198
a(V\u4efb
I82677
tp199
a(V\u5546
I82575
tp200
a(V\u6c11
I82055
tp201
a(V\u5c55
I81796
tp202
a(V\u88ab
I81741
tp203
a(V\u62a5
I81673
tp204
a(V\u5b89
I80513
tp205
a(V\u4ef6
I79532
tp206
a(V\u7cfb
I79474
tp207
a(V\u5e9c
I79310
tp208
a(V\u683c
I79033
tp209
a(V\u8ba9
I78951
tp210
a(V\u4e09
I78794
tp211
a(V\u6d4e
I78484
tp212
a(V\u6b21
I78088
tp213
a(V\u8bb8
I77525
tp214
a(V\u540d
I77346
tp215
a(V\u6536
I77198
tp216
a(V\u94f6
I77088
tp217
a(V\u514b
I77068
tp218
a(V\u8ba4
I76855
tp219
a(V\u505a
I76741
tp220
a(V\u9898
I75986
tp221
a(V\u6c34
I75531
tp222
a(V\u589e
I75154
tp223
a(V\u4f9b
I75029
tp224
a(V\u8bae
I74872
tp225
a(V\u9700
I74656
tp226
a(V\u522b
I74602
tp227
a(V\u9879
I74086
tp228
a(V\u65e0
I73868
tp229
a(V\u58eb
I73601
tp230
a(V\u91cf
I73321
tp231
a(V\u897f
I73315
tp232
a(V\u544a
I73170
tp233
a(V\u670d
I72955
tp234
a(V\u8054
I72665
tp235
a(V\u7403
I72366
tp236
a(V\u5efa
I72279
tp237
a(V\u8bbe
I71922
tp238
a(V\u56de
I71640
tp239
a(V\u4ef7
I70994
tp240
a(V\u624b
I70851
tp241
a(V\u5e38
I70847
tp242
a(V\u603b
I70381
tp243
a(V\u975e
I69717
tp244
a(V\u4f55
I69557
tp245
a(V\u5411
I69547
tp246
a(V\u6d3b
I69350
tp247
a(V\u6613
I68867
tp248
a(V\u7f51
I68733
tp249
a(V\u8bf7
I68676
tp250
a(V\u4eca
I67303
tp251
a(V\u636e
I67182
tp252
a(V\u628a
I67138
tp253
a(V\u5f71
I66884
tp254
a(V\u5212
I66743
tp255
a(V\u4e24
I66514
tp256
a(V\u5fb7
I66095
tp257
a(V\u987b
I65986
tp258
a(V\u5e73
I65806
tp259
a(V\u7ed9
I65639
tp260
a(V\u5417
I65410
tp261
a(V\u754c
I64970
tp262
a(V\u653e
I64961
tp263
a(V\u7ec4
I64715
tp264
a(V\u82f1
I64424
tp265
a(V\u7b49
I64424
tp266
a(V\u7ed3
I64154
tp267
a(V\u4e9a
I63836
tp268
a(V\u8f66
I63558
tp269
a(V\u8fd0
I63348
tp270
a(V\u4e16
I62912
tp271
a(V\u6307
I62741
tp272
a(V\u5df1
I62720
tp273
a(V\u5c11
I62624
tp274
a(V\u6d77
I62491
tp275
a(V\u53d8
I61962
tp276
a(V\u63a5
I61896
tp277
a(V\u4e50
I61804
tp278
a(V\u5f0f
I61763
tp279
a(V\u89e3
I60884
tp280
a(V\u6559
I60716
tp281
a(V\u6bcf
I60330
tp282
a(V\u8fbe
I60235
tp283
a(V\u7ea6
I59977
tp284
a(V\u7f72
I59877
tp285
a(V\u6b27
I59572
tp286
a(V\u7edf
I59295
tp287
a(V\u6807
I59049
tp288
a(V\u9020
I58793
tp289
a(V\u73af
I58790
tp290
a(V\u5c40
I58741
tp291
a(V\u5e03
I58724
tp292
a(V\u53d6
I58686
tp293
a(V\u5305
I58510
tp294
a(V\u4ee3
I58169
tp295
a(V\u67e5
I58119
tp296
a(V\u8bdd
I57880
tp297
a(V\u4e66
I57144
tp298
a(V\u771f
I56688
tp299
a(V\u7acb
I56683
tp300
a(V\u7387
I56490
tp301
a(V\u4efd
I56236
tp302
a(V\u6d32
I55627
tp303
a(V\u878d
I55540
tp304
a(V\u80a1
I54534
tp305
a(V\u611f
I54359
tp306
a(V\u9645
I54239
tp307
a(V\u52a9
I54239
tp308
a(V\u652f
I53761
tp309
a(V\u6761
I53652
tp310
a(V\u4f8b
I53600
tp311
a(V\u5883
I53471
tp312
a(V\u89c4
I53400
tp313
a(V\u8eab
I53030
tp314
a(V\u5404
I52994
tp315
a(V\u5148
I52932
tp316
a(V\u6784
I52686
tp317
a(V\u8d39
I52681
tp318
a(V\u6b3e
I52478
tp319
a(V\u79d1
I52392
tp320
a(V\u53e3
I52385
tp321
a(V\u6c42
I51937
tp322
a(V\u6743
I51933
tp323
a(V\u51c6
I51530
tp324
a(V\u4ebf
I51451
tp325
a(V\u5427
I51446
tp326
a(V\u62c9
I51312
tp327
a(V\u4e1c
I51286
tp328
a(V\u786e
I51284
tp329
a(V\u5973
I51284
tp330
a(V\u9a6c
I51282
tp331
a(V\u65bd
I50847
tp332
a(V\u98df
I50783
tp333
a(V\u9884
I50695
tp334
a(V\u5468
I50618
tp335
a(V\u8c03
I50556
tp336
a(V\u513f
I50295
tp337
a(V\u5df4
I49853
tp338
a(V\u8fd1
I49561
tp339
a(V\u76f4
I49303
tp340
a(V\u7c7b
I49241
tp341
a(V\u56e2
I49191
tp342
a(V\u6599
I49034
tp343
a(V\u51b3
I49008
tp344
a(V\u8bb0
I48818
tp345
a(V\u89c1
I48575
tp346
a(V\u529e
I48486
tp347
a(V\u9009
I48482
tp348
a(V\u8bba
I48426
tp349
a(V\u56fe
I47989
tp350
a(V\u8def
I47988
tp351
a(V\u672a
I47963
tp352
a(V\u661f
I47443
tp353
a(V\u793e
I47093
tp354
a(V\u5bfc
I47065
tp355
a(V\u5fc5
I46922
tp356
a(V\u518d
I46909
tp357
a(V\u592a
I46781
tp358
a(V\u53cd
I46742
tp359
a(V\u6539
I46496
tp360
a(V\u83b7
I46313
tp361
a(V\u6ce8
I46298
tp362
a(V\u4f01
I46283
tp363
a(V\u96f6
I46010
tp364
a(V\u6253
I45850
tp365
a(V\u7814
I45821
tp366
a(V\u95e8
I45767
tp367
a(V\u6c14
I45355
tp368
a(V\u56db
I45322
tp369
a(V\u50cf
I45076
tp370
a(V\u51e0
I44909
tp371
a(V\u53c2
I44829
tp372
a(V\u7533
I44820
tp373
a(V\u5f3a
I44804
tp374
a(V\u5219
I44721
tp375
a(V\u7a0e
I44305
tp376
a(V\u79f0
I44297
tp377
a(V\u9996
I44229
tp378
a(V\u9886
I44204
tp379
a(V\u53f7
I44071
tp380
a(V\u59cb
I43966
tp381
a(V\u4e07
I43908
tp382
a(V\u5907
I43839
tp383
a(V\u4e94
I43699
tp384
a(V\u6d88
I43635
tp385
a(V\u671b
I43319
tp386
a(V\u672f
I43113
tp387
a(V\u5934
I42995
tp388
a(V\u5171
I42659
tp389
a(V\u62ec
I42567
tp390
a(V\u89c2
I42466
tp391
a(V\u7a76
I42425
tp392
a(V\u503a
I42416
tp393
a(V\u4f4e
I42359
tp394
a(V\u51b5
I42338
tp395
a(V\u663e
I42158
tp396
a(V\u96c6
I42057
tp397
a(V\u5b58
I42037
tp398
a(V\u4e5d
I41856
tp399
a(V\u4e3e
I41803
tp400
a(V\u606f
I41663
tp401
a(V\u6d41
I41525
tp402
a(V\u54cd
I41377
tp403
a(V\u76d1
I41167
tp404
a(V\u63a8
I41133
tp405
a(V\u98ce
I41113
tp406
a(V\u5e26
I40993
tp407
a(V\u5f15
I40922
tp408
a(V\u539f
I40769
tp409
a(V\u6280
I40670
tp410
a(V\u6848
I40391
tp411
a(V\u5355
I40350
tp412
a(V\u6839
I40263
tp413
a(V\u5019
I40220
tp414
a(V\u89c6
I40168
tp415
a(V\u6f14
I40071
tp416
a(V\u8d2d
I40055
tp417
a(V\u7eed
I40023
tp418
a(V\u5e01
I39954
tp419
a(V\u7f57
I39856
tp420
a(V\u5feb
I39505
tp421
a(V\u9669
I39469
tp422
a(V\u5373
I39397
tp423
a(V\u8bc4
I39327
tp424
a(V\u5e0c
I39226
tp425
a(V\u503c
I39070
tp426
a(V\u7b56
I39045
tp427
a(V\u81f4
I38650
tp428
a(V\u96be
I38524
tp429
a(V\u521b
I38347
tp430
a(V\u6218
I38306
tp431
a(V\u8a00
I38176
tp432
a(V\u5b8c
I38158
tp433
a(V\u5931
I38111
tp434
a(V\u4e13
I37246
tp435
a(V\u9650
I37212
tp436
a(V\u5b98
I37211
tp437
a(V\u8d70
I37092
tp438
a(V\u7ad9
I37059
tp439
a(V\u5eb7
I37023
tp440
a(V\u9662
I36830
tp441
a(V\u600e
I36807
tp442
a(V\u5e08
I36806
tp443
a(V\u6237
I36731
tp444
a(V\u4e14
I36574
tp445
a(V\u51cf
I36510
tp446
a(V\u7ebf
I36501
tp447
a(V\u7231
I36361
tp448
a(V\u8d27
I36128
tp449
a(V\u7a7a
I36098
tp450
a(V\u5c3d
I36025
tp451
a(V\u89c9
I36004
tp452
a(V\u590d
I35875
tp453
a(V\u8272
I35813
tp454
a(V\u5177
I35801
tp455
a(V\u8bd5
I35781
tp456
a(V\u6e90
I35498
tp457
a(V\u5ba2
I35349
tp458
a(V\u5347
I35303
tp459
a(V\u8425
I35234
tp460
a(V\u4f20
I35167
tp461
a(V\u7167
I35070
tp462
a(V\u8f6c
I34952
tp463
a(V\u4e89
I34947
tp464
a(V\u7b97
I34896
tp465
a(V\u9664
I34803
tp466
a(V\u624d
I34718
tp467
a(V\u552e
I34544
tp468
a(V\u8001
I34391
tp469
a(V\u989d
I34384
tp470
a(V\u4e49
I34251
tp471
a(V\u6b65
I34139
tp472
a(V\u6cbb
I34035
tp473
a(V\u5c3c
I33775
tp474
a(V\u6c47
I33570
tp475
a(V\u516d
I33565
tp476
a(V\u62c5
I33537
tp477
a(V\u627e
I33524
tp478
a(V\u7ef4
I33385
tp479
a(V\u534f
I33279
tp480
a(V\u53f0
I33202
tp481
a(V\u4f17
I33136
tp482
a(V\u8d37
I33103
tp483
a(V\u80b2
I33049
tp484
a(V\u97f3
I32976
tp485
a(V\u578b
I32974
tp486
a(V\u591f
I32805
tp487
a(V\u6e38
I32768
tp488
a(V\u6392
I32673
tp489
a(V\u6574
I32605
tp490
a(V\u6548
I32599
tp491
a(V\u8d8a
I32535
tp492
a(V\u623f
I32526
tp493
a(V\u8bc9
I32521
tp494
a(V\u5b57
I32484
tp495
a(V\u6309
I32475
tp496
a(V\u8282
I32437
tp497
a(V\u8d85
I32357
tp498
a(V\u7247
I32199
tp499
a(V\u5371
I32166
tp500
a(V\u59d4
I32166
tp501
a(V\u7968
I32148
tp502
a(V\u6e05
I32052
tp503
a(V\u4ee4
I31981
tp504
a(V\u8d22
I31916
tp505
a(V\u6cb9
I31772
tp506
a(V\u91c7
I31574
tp507
a(V\u7ea7
I31507
tp508
a(V\u8d28
I31488
tp509
a(V\u4f4f
I31278
tp510
a(V\u5426
I31263
tp511
a(V\u6a21
I31241
tp512
a(V\u5217
I31134
tp513
a(V\u4fbf
I31130
tp514
a(V\u5370
I31037
tp515
a(V\u6838
I31036
tp516
a(V\u62a4
I31002
tp517
a(V\u6b62
I30944
tp518
a(V\u79bb
I30860
tp519
a(V\u82b1
I30763
tp520
a(V\u5238
I30696
tp521
a(V\u6821
I30689
tp522
a(V\u519b
I30675
tp523
a(V\u554a
I30657
tp524
a(V\u5e7f
I30622
tp525
a(V\u9986
I30565
tp526
a(V\u534e
I30426
tp527
a(V\u8003
I30378
tp528
a(V\u4ecd
I30179
tp529
a(V\u5361
I30055
tp530
a(V\u8bc6
I29641
tp531
a(V\u5bb9
I29633
tp532
a(V\u5f80
I29560
tp533
a(V\u4ec5
I29457
tp534
a(V\u5965
I29380
tp535
a(V\u4e4e
I29339
tp536
a(V\u542c
I29334
tp537
a(V\u5b69
I29332
tp538
a(V\u4e70
I29245
tp539
a(V\u88c5
I29228
tp540
a(V\u6d4b
I29149
tp541
a(V\u8f83
I29072
tp542
a(V\u901f
I29057
tp543
a(V\u5462
I29045
tp544
a(V\u8fdc
I28983
tp545
a(V\u6b22
I28980
tp546
a(V\u76ca
I28909
tp547
a(V\u5668
I28775
tp548
a(V\u5f62
I28621
tp549
a(V\u66fe
I28453
tp550
a(V\u5bcc
I28417
tp551
a(V\u8db3
I28394
tp552
a(V\u53e6
I28223
tp553
a(V\u5174
I27993
tp554
a(V\u804c
I27955
tp555
a(V\u7eaa
I27931
tp556
a(V\u5317
I27900
tp557
a(V\u5e72
I27846
tp558
a(V\u53c8
I27804
tp559
a(V\u8d5b
I27756
tp560
a(V\u8b66
I27753
tp561
a(V\u6b7b
I27707
tp562
a(V\u516b
I27624
tp563
a(V\u963f
I27593
tp564
a(V\u5e2e
I27417
tp565
a(V\u5357
I27387
tp566
a(V\u6e7e
I27362
tp567
a(V\u961f
I27248
tp568
a(V\u77f3
I27076
tp569
a(V\u8c22
I26963
tp570
a(V\u57ce
I26922
tp571
a(V\u5386
I26882
tp572
a(V\u5207
I26847
tp573
a(V\u5170
I26808
tp574
a(V\u8d23
I26738
tp575
a(V\u514d
I26704
tp576
a(V\u964d
I26673
tp577
a(V\u666e
I26596
tp578
a(V\u968f
I26571
tp579
a(V\u9519
I26508
tp580
a(V\u58f0
I26494
tp581
a(V\u8c61
I26461
tp582
a(V\u63a7
I26320
tp583
a(V\u767d
I26218
tp584
a(V\u8ddf
I26160
tp585
a(V\u767e
I26035
tp586
a(V\u5e2d
I26014
tp587
a(V\u7c73
I25993
tp588
a(V\u7ec7
I25960
tp589
a(V\u6bb5
I25926
tp590
a(V\u627f
I25838
tp591
a(V\u5f20
I25793
tp592
a(V\u8d1f
I25783
tp593
a(V\u75c5
I25647
tp594
a(V\u4f3c
I25621
tp595
a(V\u533b
I25572
tp596
a(V\u7f6e
I25554
tp597
a(V\u51fb
I25536
tp598
a(V\u65e9
I25481
tp599
a(V\u8c08
I25421
tp600
a(V\u63aa
I25333
tp601
a(V\u9a8c
I25257
tp602
a(V\u4e03
I25247
tp603
a(V\u5f55
I25124
tp604
a(V\u9002
I25091
tp605
a(V\u4eb2
I25055
tp606
a(V\u6781
I24951
tp607
a(V\u529f
I24837
tp608
a(V\u5ba4
I24669
tp609
a(V\u9500
I24646
tp610
a(V\u8111
I24566
tp611
a(V\u827a
I24563
tp612
a(V\u6267
I24383
tp613
a(V\u5149
I24373
tp614
a(V\u8baf
I24335
tp615
a(V\u592b
I24061
tp616
a(V\u53cb
I24013
tp617
a(V\u5e95
I23931
tp618
a(V\u665a
I23893
tp619
a(V\u6797
I23779
tp620
a(V\u535a
I23665
tp621
a(V\u6df1
I23665
tp622
a(V\u5747
I23660
tp623
a(V\u547d
I23603
tp624
a(V\u7eb3
I23592
tp625
a(V\u7d20
I23550
tp626
a(V\u601d
I23516
tp627
a(V\u767b
I23512
tp628
a(V\u8fb9
I23386
tp629
a(V\u559c
I23351
tp630
a(V\u5267
I23332
tp631
a(V\u8ff0
I23225
tp632
a(V\u4ed8
I23147
tp633
a(V\u5bdf
I23131
tp634
a(V\u7559
I23016
tp635
a(V\u6ee1
I22963
tp636
a(V\u5c45
I22912
tp637
a(V\u65ad
I22722
tp638
a(V\u5f8b
I22720
tp639
a(V\u7ec8
I22624
tp640
a(V\u7cbe
I22556
tp641
a(V\u5bc6
I22500
tp642
a(V\u8bed
I22487
tp643
a(V\u6279
I22483
tp644
a(V\u56ed
I22462
tp645
a(V\u52bf
I22454
tp646
a(V\u7537
I22450
tp647
a(V\u8bfe
I22429
tp648
a(V\u4fee
I22213
tp649
a(V\u7ee7
I22204
tp650
a(V\u5a01
I22126
tp651
a(V\u4f30
I22087
tp652
a(V\u5348
I22085
tp653
a(V\u4f18
I22084
tp654
a(V\u7d27
I22069
tp655
a(V\u94b1
I22054
tp656
a(V\u8fde
I21897
tp657
a(V\u5374
I21809
tp658
a(V\u70ed
I21710
tp659
a(V\u79c1
I21641
tp660
a(V\u5ba3
I21639
tp661
a(V\u795e
I21638
tp662
a(V\u4f26
I21628
tp663
a(V\u4e25
I21593
tp664
a(V\u54ea
I21584
tp665
a(V\u798f
I21370
tp666
a(V\u7248
I21338
tp667
a(V\u56f4
I21202
tp668
a(V\u8be2
I21199
tp669
a(V\u50a8
I21149
tp670
a(V\u9632
I21121
tp671
a(V\u724c
I21100
tp672
a(V\u5c71
I21088
tp673
a(V\u7b80
I21000
tp674
a(V\u5ba1
I20999
tp675
a(V\u7ade
I20913
tp676
a(V\u5145
I20749
tp677
a(V\u5199
I20683
tp678
a(V\u53f2
I20662
tp679
a(V\u72ec
I20619
tp680
a(V\u9875
I20615
tp681
a(V\u505c
I20606
tp682
a(V\u6fc0
I20497
tp683
a(V\u914d
I20450
tp684
a(V\u9152
I20442
tp685
a(V\u7ae0
I20280
tp686
a(V\u518c
I20277
tp687
a(V\u4e60
I20236
tp688
a(V\u4ea6
I20232
tp689
a(V\u5bb3
I20204
tp690
a(V\u534a
I20013
tp691
a(V\u5ead
I19957
tp692
a(V\u4f0a
I19944
tp693
a(V\u697c
I19908
tp694
a(V\u5473
I19904
tp695
a(V\u538b
I19865
tp696
a(V\u5065
I19768
tp697
a(V\u571f
I19754
tp698
a(V\u62e5
I19731
tp699
a(V\u7565
I19714
tp700
a(V\u5e45
I19702
tp701
a(V\u57df
I19687
tp702
a(V\u5c81
I19617
tp703
a(V\u89d2
I19611
tp704
a(V\u8d38
I19377
tp705
a(V\u900f
I19371
tp706
a(V\u613f
I19219
tp707
a(V\u67d0
I19203
tp708
a(V\u8ba2
I19088
tp709
a(V\u4e34
I19058
tp710
a(V\u7d22
I19049
tp711
a(V\u8f7b
I19038
tp712
a(V\u62e9
I18915
tp713
a(V\u62ff
I18886
tp714
a(V\u7edd
I18853
tp715
a(V\u5047
I18815
tp716
a(V\u5584
I18772
tp717
a(V\u7edc
I18764
tp718
a(V\u4e92
I18709
tp719
a(V\u521a
I18617
tp720
a(V\u666f
I18523
tp721
a(V\u8ba8
I18458
tp722
a(V\u592e
I18446
tp723
a(V\u6cf3
I18437
tp724
a(V\u89c8
I18428
tp725
a(V\u8bb2
I18338
tp726
a(V\u68c0
I18295
tp727
a(V\u706b
I18215
tp728
a(V\u5988
I18198
tp729
a(V\u5b63
I18011
tp730
a(V\u8651
I17999
tp731
a(V\u6001
I17991
tp732
a(V\u7834
I17968
tp733
a(V\u8857
I17926
tp734
a(V\u5438
I17789
tp735
a(V\u5947
I17699
tp736
a(V\u8865
I17648
tp737
a(V\u5c42
I17614
tp738
a(V\u7b7e
I17598
tp739
a(V\u6c99
I17593
tp740
a(V\u51b2
I17535
tp741
a(V\u72b6
I17527
tp742
a(V\u8bfa
I17409
tp743
a(V\u8303
I17246
tp744
a(V\u515a
I17168
tp745
a(V\u7ec6
I17133
tp746
a(V\u5956
I17130
tp747
a(V\u8bfb
I17007
tp748
a(V\u4eac
I16947
tp749
a(V\u773c
I16921
tp750
a(V\u5fd7
I16879
tp751
a(V\u73ed
I16858
tp752
a(V\u521d
I16792
tp753
a(V\u987e
I16790
tp754
a(V\u76df
I16762
tp755
a(V\u5c5e
I16729
tp756
a(V\u822a
I16695
tp757
a(V\u9000
I16656
tp758
a(V\u8f7d
I16638
tp759
a(V\u6740
I16627
tp760
a(V\u5f85
I16571
tp761
a(V\u6c7d
I16557
tp762
a(V\u751a
I16484
tp763
a(V\u8239
I16470
tp764
a(V\u987f
I16381
tp765
a(V\u6bcd
I16274
tp766
a(V\u517b
I16270
tp767
a(V\u79fb
I16245
tp768
a(V\u5360
I16218
tp769
a(V\u95fb
I16208
tp770
a(V\u8bad
I16202
tp771
a(V\u5403
I16174
tp772
a(V\u5fae
I16173
tp773
a(V\u4f9d
I16112
tp774
a(V\u5dee
I16094
tp775
a(V\u8c01
I16076
tp776
a(V\u7591
I15996
tp777
a(V\u77ed
I15993
tp778
a(V\u6d3e
I15950
tp779
a(V\u7801
I15857
tp780
a(V\u6790
I15808
tp781
a(V\u7a81
I15782
tp782
a(V\u63f4
I15760
tp783
a(V\u5e97
I15751
tp784
a(V\u56f0
I15750
tp785
a(V\u6545
I15712
tp786
a(V\u5de8
I15652
tp787
a(V\u6ce2
I15652
tp788
a(V\u9644
I15601
tp789
a(V\u6bd2
I15584
tp790
a(V\u54c8
I15563
tp791
a(V\u98de
I15510
tp792
a(V\u5dde
I15461
tp793
a(V\u4f2f
I15422
tp794
a(V\u9769
I15412
tp795
a(V\u6362
I15407
tp796
a(V\u821e
I15383
tp797
a(V\u59c6
I15347
tp798
a(V\u82cf
I15332
tp799
a(V\u4f19
I15301
tp800
a(V\u96f7
I15241
tp801
a(V\u9752
I15220
tp802
a(V\u4f24
I15185
tp803
a(V\u4e45
I15142
tp804
a(V\u53cc
I15120
tp805
a(V\u4ecb
I15115
tp806
a(V\u5224
I15092
tp807
a(V\u94c1
I14978
tp808
a(V\u5ea7
I14807
tp809
a(V\u5bfb
I14788
tp810
a(V\u843d
I14785
tp811
a(V\u670b
I14749
tp812
a(V\u88c1
I14746
tp813
a(V\u6258
I14722
tp814
a(V\u7ae5
I14643
tp815
a(V\u9f99
I14642
tp816
a(V\u907f
I14635
tp817
a(V\u65c5
I14619
tp818
a(V\u5e8f
I14590
tp819
a(V\u8da3
I14505
tp820
a(V\u7f13
I14484
tp821
a(V\u7f16
I14483
tp822
a(V\u6b4c
I14463
tp823
a(V\u5b9d
I14458
tp824
a(V\u67d3
I14423
tp825
a(V\u635f
I14406
tp826
a(V\u53e4
I14399
tp827
a(V\u66fc
I14387
tp828
a(V\u7236
I14367
tp829
a(V\u68ee
I14361
tp830
a(V\u536b
I14361
tp831
a(V\u79ef
I14349
tp832
a(V\u83b1
I14325
tp833
a(V\u80af
I14324
tp834
a(V\u745e
I14286
tp835
a(V\u8dcc
I14278
tp836
a(V\u9605
I14225
tp837
a(V\u6269
I14182
tp838
a(V\u8d1d
I14176
tp839
a(V\u8f6f
I14141
tp840
a(V\u6551
I14140
tp841
a(V\u53eb
I14071
tp842
a(V\u5a5a
I14064
tp843
a(V\u5c9b
I14029
tp844
a(V\u96c7
I13980
tp845
a(V\u6444
I13968
tp846
a(V\u6717
I13960
tp847
a(V\u542b
I13933
tp848
a(V\u6566
I13895
tp849
a(V\u5ff5
I13851
tp850
a(V\u620f
I13845
tp851
a(V\u6e29
I13843
tp852
a(V\u7a33
I13753
tp853
a(V\u5356
I13751
tp854
a(V\u9ed1
I13751
tp855
a(V\u519c
I13749
tp856
a(V\u6c61
I13701
tp857
a(V\u9001
I13693
tp858
a(V\u6388
I13676
tp859
a(V\u7f3a
I13667
tp860
a(V\u7ec3
I13641
tp861
a(V\u54e5
I13521
tp862
a(V\u7f6a
I13457
tp863
a(V\u8bbf
I13360
tp864
a(V\u76db
I13357
tp865
a(V\u4fc4
I13321
tp866
a(V\u6da8
I13315
tp867
a(V\u52b3
I13217
tp868
a(V\u52aa
I13199
tp869
a(V\u91ca
I13197
tp870
a(V\u5343
I13150
tp871
a(V\u7fa4
I13146
tp872
a(V\u836f
I13130
tp873
a(V\u9ec4
I13042
tp874
a(V\u5382
I13030
tp875
a(V\u4eab
I12974
tp876
a(V\u6742
I12961
tp877
a(V\u5b97
I12959
tp878
a(V\u6069
I12948
tp879
a(V\u8fea
I12924
tp880
a(V\u8f93
I12918
tp881
a(V\u501f
I12913
tp882
a(V\u9732
I12900
tp883
a(V\u7597
I12878
tp884
a(V\u867d
I12859
tp885
a(V\u65cf
I12805
tp886
a(V\u6fb3
I12799
tp887
a(V\u73a9
I12774
tp888
a(V\u793c
I12749
tp889
a(V\u4e88
I12599
tp890
a(V\u5c4b
I12575
tp891
a(V\u822c
I12572
tp892
a(V\u72af
I12524
tp893
a(V\u8be6
I12519
tp894
a(V\u6628
I12492
tp895
a(V\u8428
I12415
tp896
a(V\u667a
I12346
tp897
a(V\u4fc3
I12291
tp898
a(V\u7ea2
I12291
tp899
a(V\u969c
I12244
tp900
a(V\u76d6
I12201
tp901
a(V\u90ae
I12189
tp902
a(V\u7f29
I12130
tp903
a(V\u9047
I12091
tp904
a(V\u7b54
I12019
tp905
a(V\u63ed
I12001
tp906
a(V\u949f
I11968
tp907
a(V\u677f
I11923
tp908
a(V\u7b51
I11772
tp909
a(V\u677e
I11767
tp910
a(V\u5854
I11714
tp911
a(V\u7b26
I11606
tp912
a(V\u5957
I11552
tp913
a(V\u5b88
I11473
tp914
a(V\u753b
I11470
tp915
a(V\u5c24
I11465
tp916
a(V\u6c38
I11462
tp917
a(V\u6389
I11437
tp918
a(V\u675f
I11407
tp919
a(V\u62b1
I11402
tp920
a(V\u62cd
I11316
tp921
a(V\u8f86
I11315
tp922
a(V\u574f
I11298
tp923
a(V\u4f59
I11283
tp924
a(V\u9c9c
I11278
tp925
a(V\u9910
I11266
tp926
a(V\u8f6e
I11259
tp927
a(V\u7a7f
I11225
tp928
a(V\u826f
I11198
tp929
a(V\u671d
I11187
tp930
a(V\u79d8
I11160
tp931
a(V\u7238
I11158
tp932
a(V\u6297
I11080
tp933
a(V\u6050
I11079
tp934
a(V\u5a92
I11062
tp935
a(V\u8fce
I11062
tp936
a(V\u7b14
I11054
tp937
a(V\u63a2
I11053
tp938
a(V\u52d2
I11044
tp939
a(V\u54a8
I11035
tp940
a(V\u7259
I11031
tp941
a(V\u6000
I10993
tp942
a(V\u9636
I10991
tp943
a(V\u523b
I10978
tp944
a(V\u526f
I10966
tp945
a(V\u6311
I10942
tp946
a(V\u82e5
I10885
tp947
a(V\u575a
I10863
tp948
a(V\u8863
I10863
tp949
a(V\u5f81
I10851
tp950
a(V\u5f31
I10848
tp951
a(V\u60e0
I10833
tp952
a(V\u66b4
I10812
tp953
a(V\u906d
I10804
tp954
a(V\u7efc
I10778
tp955
a(V\u738b
I10774
tp956
a(V\u500d
I10746
tp957
a(V\u585e
I10745
tp958
a(V\u6ee9
I10737
tp959
a(V\u7530
I10714
tp960
a(V\u80cc
I10713
tp961
a(V\u7ebd
I10704
tp962
a(V\u5723
I10697
tp963
a(V\u8482
I10686
tp964
a(V\u6682
I10676
tp965
a(V\u5750
I10619
tp966
a(V\u60ca
I10591
tp967
a(V\u5178
I10561
tp968
a(V\u6076
I10553
tp969
a(V\u7981
I10539
tp970
a(V\u62b5
I10537
tp971
a(V\u52b1
I10507
tp972
a(V\u9f13
I10488
tp973
a(V\u66f2
I10454
tp974
a(V\u5e9f
I10453
tp975
a(V\u5766
I10359
tp976
a(V\u4e3d
I10303
tp977
a(V\u8c37
I10303
tp978
a(V\u7840
I10257
tp979
a(V\u9c81
I10241
tp980
a(V\u8861
I10221
tp981
a(V\u8463
I10208
tp982
a(V\u4e30
I10189
tp983
a(V\u6025
I10182
tp984
a(V\u7b11
I10165
tp985
a(V\u8bef
I10136
tp986
a(V\u5e93
I10104
tp987
a(V\u4f11
I10099
tp988
a(V\u5f39
I10046
tp989
a(V\u5ef6
I10046
tp990
a(V\u6d1b
I10020
tp991
a(V\u8840
I10015
tp992
a(V\u65d7
I9969
tp993
a(V\u5f02
I9959
tp994
a(V\u5740
I9951
tp995
a(V\u5e78
I9949
tp996
a(V\u827e
I9945
tp997
a(V\u9ea6
I9897
tp998
a(V\u5012
I9882
tp999
a(V\u76ae
I9841
tp1000
a(V\u8457
I9800
tp1001
a(V\u9760
I9770
tp1002
a(V\u80c0
I9748
tp1003
a(V\u67b6
I9745
tp1004
a(V\u5409
I9719
tp1005
a(V\u8feb
I9697
tp1006
a(V\u85cf
I9688
tp1007
a(V\u83f2
I9640
tp1008
a(V\u6770
I9639
tp1009
a(V\u8d25
I9619
tp1010
a(V\u70c8
I9614
tp1011
a(V\u5c04
I9575
tp1012
a(V\u9c7c
I9558
tp1013
a(V\u6c60
I9539
tp1014
a(V\u57c3
I9533
tp1015
a(V\u547c
I9523
tp1016
a(V\u8bd1
I9516
tp1017
a(V\u57f9
I9513
tp1018
a(V\u6da6
I9483
tp1019
a(V\u4f34
I9476
tp1020
a(V\u6b66
I9455
tp1021
a(V\u6d89
I9408
tp1022
a(V\u6728
I9390
tp1023
a(V\u8ffd
I9383
tp1024
a(V\u586b
I9364
tp1025
a(V\u54e6
I9361
tp1026
a(V\u5f69
I9355
tp1027
a(V\u523a
I9344
tp1028
a(V\u5f17
I9333
tp1029
a(V\u5802
I9319
tp1030
a(V\u6469
I9319
tp1031
a(V\u6811
I9260
tp1032
a(V\u64cd
I9228
tp1033
a(V\u5e55
I9217
tp1034
a(V\u64ad
I9194
tp1035
a(V\u7aef
I9191
tp1036
a(V\u952e
I9189
tp1037
a(V\u8fd4
I9176
tp1038
a(V\u62db
I9163
tp1039
a(V\u5fe7
I9111
tp1040
a(V\u77ff
I9107
tp1041
a(V\u60a8
I9104
tp1042
a(V\u6162
I9082
tp1043
a(V\u7075
I9056
tp1044
a(V\u8d34
I9029
tp1045
a(V\u4f73
I9028
tp1046
a(V\u56fa
I9024
tp1047
a(V\u7701
I9023
tp1048
a(V\u6df7
I9008
tp1049
a(V\u95ed
I8951
tp1050
a(V\u9014
I8939
tp1051
a(V\u5c1a
I8884
tp1052
a(V\u6c83
I8865
tp1053
a(V\u8ff7
I8850
tp1054
a(V\u86cb
I8834
tp1055
a(V\u85aa
I8819
tp1056
a(V\u9646
I8804
tp1057
a(V\u76d8
I8767
tp1058
a(V\u602a
I8766
tp1059
a(V\u79df
I8742
tp1060
a(V\u7206
I8735
tp1061
a(V\u5f03
I8721
tp1062
a(V\u8ff9
I8712
tp1063
a(V\u695a
I8697
tp1064
a(V\u6f5c
I8669
tp1065
a(V\u6750
I8659
tp1066
a(V\u9488
I8621
tp1067
a(V\u75c7
I8588
tp1068
a(V\u5de6
I8584
tp1069
a(V\u51b7
I8547
tp1070
a(V\u8089
I8547
tp1071
a(V\u4ea1
I8537
tp1072
a(V\u6751
I8509
tp1073
a(V\u6cb3
I8480
tp1074
a(V\u8fdd
I8458
tp1075
a(V\u8dd1
I8448
tp1076
a(V\u6015
I8440
tp1077
a(V\u75be
I8406
tp1078
a(V\u5f1f
I8374
tp1079
a(V\u97e9
I8363
tp1080
a(V\u725b
I8360
tp1081
a(V\u4e39
I8337
tp1082
a(V\u9677
I8333
tp1083
a(V\u7b79
I8323
tp1084
a(V\u80dc
I8313
tp1085
a(V\u6b8b
I8302
tp1086
a(V\u6982
I8291
tp1087
a(V\u6325
I8290
tp1088
a(V\u6d6a
I8282
tp1089
a(V\u7eb8
I8263
tp1090
a(V\u9891
I8256
tp1091
a(V\u690d
I8240
tp1092
a(V\u641c
I8224
tp1093
a(V\u8bcd
I8222
tp1094
a(V\u9ed8
I8210
tp1095
a(V\u963b
I8208
tp1096
a(V\u9012
I8198
tp1097
a(V\u9057
I8193
tp1098
a(V\u68a6
I8183
tp1099
a(V\u4e71
I8163
tp1100
a(V\u6beb
I8159
tp1101
a(V\u542f
I8153
tp1102
a(V\u53f3
I8145
tp1103
a(V\u8349
I8143
tp1104
a(V\u674e
I8137
tp1105
a(V\u9633
I8102
tp1106
a(V\u67aa
I8088
tp1107
a(V\u6620
I8022
tp1108
a(V\u8d56
I8020
tp1109
a(V\u5c4a
I8012
tp1110
a(V\u591c
I8011
tp1111
a(V\u74e6
I7995
tp1112
a(V\u83ab
I7943
tp1113
a(V\u6bd5
I7941
tp1114
a(V\u89e6
I7918
tp1115
a(V\u552f
I7911
tp1116
a(V\u96c5
I7906
tp1117
a(V\u8131
I7893
tp1118
a(V\u51b0
I7890
tp1119
a(V\u6563
I7880
tp1120
a(V\u6cf0
I7852
tp1121
a(V\u7761
I7839
tp1122
a(V\u9192
I7836
tp1123
a(V\u70df
I7828
tp1124
a(V\u5757
I7815
tp1125
a(V\u9876
I7793
tp1126
a(V\u6d0b
I7780
tp1127
a(V\u6d17
I7758
tp1128
a(V\u7cdf
I7744
tp1129
a(V\u996e
I7732
tp1130
a(V\u9a76
I7723
tp1131
a(V\u739b
I7717
tp1132
a(V\u82e6
I7669
tp1133
a(V\u6234
I7663
tp1134
a(V\u5f52
I7656
tp1135
a(V\u719f
I7652
tp1136
a(V\u5bbd
I7630
tp1137
a(V\u594f
I7611
tp1138
a(V\u91ce
I7606
tp1139
a(V\u706f
I7606
tp1140
a(V\u75db
I7581
tp1141
a(V\u5531
I7544
tp1142
a(V\u65e7
I7541
tp1143
a(V\u904d
I7535
tp1144
a(V\u94a2
I7461
tp1145
a(V\u5385
I7428
tp1146
a(V\u9010
I7427
tp1147
a(V\u5e1d
I7416
tp1148
a(V\u7f34
I7403
tp1149
a(V\u62d2
I7398
tp1150
a(V\u8fc5
I7392
tp1151
a(V\u8363
I7375
tp1152
a(V\u90a6
I7357
tp1153
a(V\u9a7e
I7351
tp1154
a(V\u4e54
I7308
tp1155
a(V\u4eae
I7306
tp1156
a(V\u5b9c
I7301
tp1157
a(V\u814a
I7295
tp1158
a(V\u4ed4
I7287
tp1159
a(V\u9759
I7271
tp1160
a(V\u65e2
I7258
tp1161
a(V\u82f9
I7232
tp1162
a(V\u7e41
I7211
tp1163
a(V\u6885
I7200
tp1164
a(V\u8499
I7196
tp1165
a(V\u7ffb
I7190
tp1166
a(V\u6b49
I7173
tp1167
a(V\u5f84
I7164
tp1168
a(V\u590f
I7162
tp1169
a(V\u9f84
I7161
tp1170
a(V\u5987
I7143
tp1171
a(V\u786c
I7127
tp1172
a(V\u8d62
I7106
tp1173
a(V\u9648
I7101
tp1174
a(V\u987a
I7100
tp1175
a(V\u51ef
I7099
tp1176
a(V\u8d5e
I7092
tp1177
a(V\u8d8b
I7091
tp1178
a(V\u524a
I7087
tp1179
a(V\u62dc
I7079
tp1180
a(V\u6298
I7074
tp1181
a(V\u6ed1
I7035
tp1182
a(V\u5144
I7006
tp1183
a(V\u6cdb
I6996
tp1184
a(V\u507f
I6982
tp1185
a(V\u9ebb
I6960
tp1186
a(V\u5242
I6944
tp1187
a(V\u5976
I6942
tp1188
a(V\u80c1
I6931
tp1189
a(V\u5fd9
I6921
tp1190
a(V\u672b
I6906
tp1191
a(V\u805a
I6897
tp1192
a(V\u638c
I6891
tp1193
a(V\u7763
I6885
tp1194
a(V\u60a3
I6877
tp1195
a(V\u62df
I6833
tp1196
a(V\u8870
I6830
tp1197
a(V\u7ee9
I6829
tp1198
a(V\u8ddd
I6824
tp1199
a(V\u7cd5
I6817
tp1200
a(V\u5fd8
I6803
tp1201
a(V\u6597
I6790
tp1202
a(V\u5de7
I6787
tp1203
a(V\u76c8
I6781
tp1204
a(V\u6e10
I6775
tp1205
a(V\u8d35
I6763
tp1206
a(V\u559d
I6753
tp1207
a(V\u6c49
I6747
tp1208
a(V\u5c01
I6651
tp1209
a(V\u6863
I6640
tp1210
a(V\u653b
I6635
tp1211
a(V\u561b
I6634
tp1212
a(V\u80e1
I6586
tp1213
a(V\u4f5b
I6552
tp1214
a(V\u622a
I6514
tp1215
a(V\u9690
I6507
tp1216
a(V\u641e
I6505
tp1217
a(V\u6bdb
I6484
tp1218
a(V\u676f
I6460
tp1219
a(V\u4eea
I6455
tp1220
a(V\u4e4f
I6414
tp1221
a(V\u4e1d
I6406
tp1222
a(V\u63cf
I6392
tp1223
a(V\u9707
I6391
tp1224
a(V\u83dc
I6387
tp1225
a(V\u5141
I6321
tp1226
a(V\u59d0
I6320
tp1227
a(V\u5e10
I6317
tp1228
a(V\u7eff
I6278
tp1229
a(V\u5cf0
I6262
tp1230
a(V\u8de8
I6258
tp1231
a(V\u6d4f
I6199
tp1232
a(V\u66ff
I6177
tp1233
a(V\u8d64
I6176
tp1234
a(V\u9694
I6157
tp1235
a(V\u71c3
I6149
tp1236
a(V\u6697
I6147
tp1237
a(V\u51c0
I6130
tp1238
a(V\u8df3
I6105
tp1239
a(V\u5cb8
I6098
tp1240
a(V\u811a
I6091
tp1241
a(V\u5e86
I6089
tp1242
a(V\u6c89
I6087
tp1243
a(V\u62d3
I6087
tp1244
a(V\u9551
I6065
tp1245
a(V\u6d01
I6055
tp1246
a(V\u955c
I6031
tp1247
a(V\u5c1d
I6015
tp1248
a(V\u70b8
I6001
tp1249
a(V\u6f6e
I5999
tp1250
a(V\u788d
I5989
tp1251
a(V\u7eea
I5988
tp1252
a(V\u62bc
I5966
tp1253
a(V\u5bbe
I5965
tp1254
a(V\u5e8a
I5956
tp1255
a(V\u72c2
I5953
tp1256
a(V\u6ce5
I5921
tp1257
a(V\u5761
I5894
tp1258
a(V\u8058
I5892
tp1259
a(V\u7ecd
I5877
tp1260
a(V\u520a
I5875
tp1261
a(V\u503e
I5848
tp1262
a(V\u624e
I5831
tp1263
a(V\u8fa9
I5826
tp1264
a(V\u8d26
I5825
tp1265
a(V\u59a5
I5702
tp1266
a(V\u5b85
I5698
tp1267
a(V\u5e15
I5688
tp1268
a(V\u83cc
I5680
tp1269
a(V\u707e
I5675
tp1270
a(V\u9003
I5674
tp1271
a(V\u8bda
I5673
tp1272
a(V\u8fc8
I5667
tp1273
a(V\u6ce1
I5651
tp1274
a(V\u563f
I5634
tp1275
a(V\u7cd6
I5634
tp1276
a(V\u5609
I5615
tp1277
a(V\u8f9e
I5614
tp1278
a(V\u7bb1
I5611
tp1279
a(V\u7687
I5606
tp1280
a(V\u70e6
I5598
tp1281
a(V\u7d2f
I5597
tp1282
a(V\u68d2
I5588
tp1283
a(V\u53e5
I5567
tp1284
a(V\u7eb7
I5561
tp1285
a(V\u96ea
I5548
tp1286
a(V\u5f04
I5511
tp1287
a(V\u8c6a
I5510
tp1288
a(V\u6302
I5482
tp1289
a(V\u59bb
I5481
tp1290
a(V\u7bc7
I5479
tp1291
a(V\u7c89
I5473
tp1292
a(V\u65e8
I5440
tp1293
a(V\u903e
I5421
tp1294
a(V\u52b2
I5421
tp1295
a(V\u732e
I5408
tp1296
a(V\u8d21
I5407
tp1297
a(V\u7f5a
I5404
tp1298
a(V\u6bc1
I5390
tp1299
a(V\u6062
I5382
tp1300
a(V\u504f
I5372
tp1301
a(V\u6293
I5371
tp1302
a(V\u5c4f
I5355
tp1303
a(V\u6446
I5345
tp1304
a(V\u4f1f
I5318
tp1305
a(V\u65e6
I5300
tp1306
a(V\u5b87
I5296
tp1307
a(V\u9080
I5293
tp1308
a(V\u65c1
I5259
tp1309
a(V\u4e01
I5257
tp1310
a(V\u8d4f
I5247
tp1311
a(V\u9a7b
I5244
tp1312
a(V\u79c0
I5229
tp1313
a(V\u8d76
I5227
tp1314
a(V\u7adf
I5218
tp1315
a(V\u72d7
I5210
tp1316
a(V\u5e7c
I5199
tp1317
a(V\u654f
I5194
tp1318
a(V\u8fdf
I5177
tp1319
a(V\u996d
I5176
tp1320
a(V\u820d
I5138
tp1321
a(V\u5a1c
I5128
tp1322
a(V\u60ef
I5124
tp1323
a(V\u75af
I5112
tp1324
a(V\u6263
I5083
tp1325
a(V\u4e91
I5082
tp1326
a(V\u6270
I5075
tp1327
a(V\u9274
I5073
tp1328
a(V\u5f7c
I5073
tp1329
a(V\u8d6b
I5070
tp1330
a(V\u5f7b
I5063
tp1331
a(V\u8138
I5051
tp1332
a(V\u96e8
I5050
tp1333
a(V\u84dd
I5047
tp1334
a(V\u706d
I5029
tp1335
a(V\u7532
I5016
tp1336
a(V\u4e58
I5003
tp1337
a(V\u9075
I5001
tp1338
a(V\u7126
I4996
tp1339
a(V\u51a0
I4988
tp1340
a(V\u5ec9
I4983
tp1341
a(V\u6c0f
I4980
tp1342
a(V\u5175
I4975
tp1343
a(V\u4fb5
I4972
tp1344
a(V\u8c13
I4959
tp1345
a(V\u566a
I4954
tp1346
a(V\u6355
I4951
tp1347
a(V\u55ef
I4936
tp1348
a(V\u5566
I4929
tp1349
a(V\u96c4
I4897
tp1350
a(V\u8461
I4896
tp1351
a(V\u8d2b
I4887
tp1352
a(V\u9ece
I4863
tp1353
a(V\u7c4d
I4860
tp1354
a(V\u8389
I4844
tp1355
a(V\u8404
I4840
tp1356
a(V\u5269
I4835
tp1357
a(V\u5c16
I4829
tp1358
a(V\u7a46
I4805
tp1359
a(V\u5fc6
I4796
tp1360
a(V\u731c
I4796
tp1361
a(V\u5377
I4793
tp1362
a(V\u5192
I4792
tp1363
a(V\u9547
I4792
tp1364
a(V\u5806
I4786
tp1365
a(V\u90bb
I4779
tp1366
a(V\u8033
I4764
tp1367
a(V\u9f50
I4756
tp1368
a(V\u970d
I4754
tp1369
a(V\u8c0b
I4745
tp1370
a(V\u6b32
I4728
tp1371
a(V\u58a8
I4711
tp1372
a(V\u7ff0
I4709
tp1373
a(V\u62bd
I4698
tp1374
a(V\u6b8a
I4696
tp1375
a(V\u795d
I4690
tp1376
a(V\u8a89
I4674
tp1377
a(V\u78b3
I4669
tp1378
a(V\u8377
I4667
tp1379
a(V\u64a4
I4650
tp1380
a(V\u61c2
I4633
tp1381
a(V\u6865
I4621
tp1382
a(V\u5362
I4620
tp1383
a(V\u70e7
I4579
tp1384
a(V\u63e1
I4567
tp1385
a(V\u5076
I4562
tp1386
a(V\u6562
I4545
tp1387
a(V\u8e2a
I4541
tp1388
a(V\u6602
I4533
tp1389
a(V\u5faa
I4531
tp1390
a(V\u5151
I4495
tp1391
a(V\u53f6
I4488
tp1392
a(V\u6d8c
I4479
tp1393
a(V\u8bf8
I4454
tp1394
a(V\u53ec
I4447
tp1395
a(V\u626c
I4444
tp1396
a(V\u593a
I4440
tp1397
a(V\u7434
I4422
tp1398
a(V\u88ad
I4403
tp1399
a(V\u865a
I4397
tp1400
a(V\u810f
I4384
tp1401
a(V\u5c0a
I4371
tp1402
a(V\u916c
I4371
tp1403
a(V\u9b54
I4368
tp1404
a(V\u6089
I4364
tp1405
a(V\u5496
I4347
tp1406
a(V\u7a77
I4345
tp1407
a(V\u9b3c
I4329
tp1408
a(V\u5561
I4329
tp1409
a(V\u60b2
I4320
tp1410
a(V\u9e21
I4315
tp1411
a(V\u9a97
I4315
tp1412
a(V\u9970
I4310
tp1413
a(V\u62d6
I4302
tp1414
a(V\u9178
I4288
tp1415
a(V\u7235
I4286
tp1416
a(V\u4e8f
I4277
tp1417
a(V\u5851
I4275
tp1418
a(V\u5077
I4274
tp1419
a(V\u6625
I4266
tp1420
a(V\u5401
I4265
tp1421
a(V\u4f69
I4256
tp1422
a(V\u8986
I4251
tp1423
a(V\u6f2b
I4250
tp1424
a(V\u6db2
I4246
tp1425
a(V\u866b
I4222
tp1426
a(V\u900a
I4210
tp1427
a(V\u7ed5
I4196
tp1428
a(V\u614e
I4188
tp1429
a(V\u8fc4
I4180
tp1430
a(V\u8036
I4178
tp1431
a(V\u6012
I4175
tp1432
a(V\u5899
I4173
tp1433
a(V\u9e1f
I4169
tp1434
a(V\u72f1
I4140
tp1435
a(V\u5821
I4137
tp1436
a(V\u6291
I4135
tp1437
a(V\u838e
I4127
tp1438
a(V\u84c4
I4125
tp1439
a(V\u5565
I4121
tp1440
a(V\u80a5
I4120
tp1441
a(V\u6de1
I4119
tp1442
a(V\u8bde
I4112
tp1443
a(V\u517c
I4110
tp1444
a(V\u5bab
I4103
tp1445
a(V\u97e6
I4093
tp1446
a(V\u8f91
I4091
tp1447
a(V\u6c27
I4087
tp1448
a(V\u6b23
I4080
tp1449
a(V\u6016
I4078
tp1450
a(V\u5bc4
I4078
tp1451
a(V\u4fe9
I4071
tp1452
a(V\u6d25
I4069
tp1453
a(V\u9aa8
I4063
tp1454
a(V\u5662
I4044
tp1455
a(V\u5211
I4043
tp1456
a(V\u59b9
I4043
tp1457
a(V\u804a
I4040
tp1458
a(V\u8336
I4039
tp1459
a(V\u8361
I4031
tp1460
a(V\u80de
I4021
tp1461
a(V\u5858
I4005
tp1462
a(V\u5448
I3997
tp1463
a(V\u632f
I3995
tp1464
a(V\u604b
I3983
tp1465
a(V\u6cbf
I3964
tp1466
a(V\u52c3
I3962
tp1467
a(V\u5b81
I3951
tp1468
a(V\u8328
I3949
tp1469
a(V\u6070
I3940
tp1470
a(V\u4e4c
I3933
tp1471
a(V\u6316
I3909
tp1472
a(V\u5fcd
I3902
tp1473
a(V\u59fb
I3901
tp1474
a(V\u539a
I3898
tp1475
a(V\u60ac
I3897
tp1476
a(V\u5634
I3894
tp1477
a(V\u8270
I3883
tp1478
a(V\u575b
I3874
tp1479
a(V\u94fe
I3871
tp1480
a(V\u8d5a
I3871
tp1481
a(V\u6c5f
I3863
tp1482
a(V\u6492
I3863
tp1483
a(V\u684c
I3843
tp1484
a(V\u9501
I3837
tp1485
a(V\u8017
I3834
tp1486
a(V\u73cd
I3826
tp1487
a(V\u8f85
I3825
tp1488
a(V\u6c57
I3821
tp1489
a(V\u6148
I3820
tp1490
a(V\u6350
I3820
tp1491
a(V\u5ffd
I3819
tp1492
a(V\u4e27
I3811
tp1493
a(V\u6cfd
I3811
tp1494
a(V\u8dc3
I3807
tp1495
a(V\u6052
I3794
tp1496
a(V\u633a
I3785
tp1497
a(V\u7f18
I3775
tp1498
a(V\u8150
I3774
tp1499
a(V\u5999
I3772
tp1500
a(V\u5f92
I3771
tp1501
a(V\u978b
I3763
tp1502
a(V\u594b
I3760
tp1503
a(V\u8e48
I3760
tp1504
a(V\u53a6
I3757
tp1505
a(V\u6f02
I3754
tp1506
a(V\u5c3e
I3751
tp1507
a(V\u6458
I3748
tp1508
a(V\u6b3a
I3746
tp1509
a(V\u82ac
I3741
tp1510
a(V\u626e
I3734
tp1511
a(V\u654c
I3713
tp1512
a(V\u8d4c
I3710
tp1513
a(V\u88c2
I3707
tp1514
a(V\u5e7b
I3688
tp1515
a(V\u764c
I3686
tp1516
a(V\u8f9b
I3680
tp1517
a(V\u6cab
I3677
tp1518
a(V\u5179
I3675
tp1519
a(V\u5e9e
I3673
tp1520
a(V\u6dfb
I3661
tp1521
a(V\u62c6
I3656
tp1522
a(V\u7a3f
I3655
tp1523
a(V\u5b8f
I3646
tp1524
a(V\u7a97
I3644
tp1525
a(V\u75b2
I3639
tp1526
a(V\u94dc
I3614
tp1527
a(V\u4f63
I3612
tp1528
a(V\u8212
I3595
tp1529
a(V\u5c6f
I3591
tp1530
a(V\u4eff
I3587
tp1531
a(V\u675c
I3578
tp1532
a(V\u7eaf
I3573
tp1533
a(V\u864e
I3566
tp1534
a(V\u6ecb
I3559
tp1535
a(V\u538c
I3540
tp1536
a(V\u888b
I3533
tp1537
a(V\u6b20
I3525
tp1538
a(V\u5440
I3523
tp1539
a(V\u6d1e
I3519
tp1540
a(V\u51ed
I3517
tp1541
a(V\u6f0f
I3513
tp1542
a(V\u7164
I3510
tp1543
a(V\u9a71
I3509
tp1544
a(V\u4e61
I3509
tp1545
a(V\u62e8
I3499
tp1546
a(V\u6746
I3494
tp1547
a(V\u9634
I3488
tp1548
a(V\u642d
I3484
tp1549
a(V\u51e1
I3483
tp1550
a(V\u7956
I3479
tp1551
a(V\u629b
I3474
tp1552
a(V\u4f0d
I3474
tp1553
a(V\u78b0
I3457
tp1554
a(V\u8f96
I3448
tp1555
a(V\u5a18
I3436
tp1556
a(V\u649e
I3432
tp1557
a(V\u9635
I3432
tp1558
a(V\u6e56
I3417
tp1559
a(V\u5a74
I3408
tp1560
a(V\u8102
I3407
tp1561
a(V\u6b67
I3403
tp1562
a(V\u57d4
I3371
tp1563
a(V\u8c28
I3370
tp1564
a(V\u5428
I3345
tp1565
a(V\u6c64
I3340
tp1566
a(V\u5c3a
I3336
tp1567
a(V\u8d4b
I3332
tp1568
a(V\u8bca
I3328
tp1569
a(V\u6447
I3321
tp1570
a(V\u8896
I3318
tp1571
a(V\u94fa
I3314
tp1572
a(V\u5c38
I3297
tp1573
a(V\u5708
I3294
tp1574
a(V\u751c
I3291
tp1575
a(V\u5d29
I3290
tp1576
a(V\u9526
I3284
tp1577
a(V\u52c7
I3281
tp1578
a(V\u643a
I3262
tp1579
a(V\u4e08
I3260
tp1580
a(V\u8bd7
I3245
tp1581
a(V\u9a91
I3243
tp1582
a(V\u8584
I3239
tp1583
a(V\u62a2
I3239
tp1584
a(V\u6028
I3234
tp1585
a(V\u7237
I3233
tp1586
a(V\u5a31
I3225
tp1587
a(V\u5446
I3223
tp1588
a(V\u9686
I3220
tp1589
a(V\u788e
I3220
tp1590
a(V\u9881
I3220
tp1591
a(V\u8010
I3218
tp1592
a(V\u80c6
I3206
tp1593
a(V\u6d6e
I3193
tp1594
a(V\u54b1
I3189
tp1595
a(V\u6851
I3183
tp1596
a(V\u4e73
I3182
tp1597
a(V\u6124
I3175
tp1598
a(V\u6eda
I3175
tp1599
a(V\u732b
I3173
tp1600
a(V\u574a
I3173
tp1601
a(V\u966a
I3160
tp1602
a(V\u5783
I3160
tp1603
a(V\u573e
I3158
tp1604
a(V\u7070
I3156
tp1605
a(V\u9f20
I3150
tp1606
a(V\u90a8
I3145
tp1607
a(V\u74f6
I3137
tp1608
a(V\u7cae
I3135
tp1609
a(V\u680f
I3134
tp1610
a(V\u806a
I3129
tp1611
a(V\u59ae
I3123
tp1612
a(V\u6e20
I3121
tp1613
a(V\u73e0
I3117
tp1614
a(V\u9887
I3116
tp1615
a(V\u656c
I3112
tp1616
a(V\u5510
I3111
tp1617
a(V\u65fa
I3110
tp1618
a(V\u5706
I3106
tp1619
a(V\u6696
I3101
tp1620
a(V\u5b64
I3100
tp1621
a(V\u6e21
I3090
tp1622
a(V\u6876
I3083
tp1623
a(V\u745f
I3077
tp1624
a(V\u62ab
I3056
tp1625
a(V\u7ca4
I3055
tp1626
a(V\u4ff1
I3019
tp1627
a(V\u8bbc
I3017
tp1628
a(V\u67dc
I3016
tp1629
a(V\u5de1
I3015
tp1630
a(V\u58c1
I3014
tp1631
a(V\u8c46
I3014
tp1632
a(V\u775b
I3006
tp1633
a(V\u5e84
I2997
tp1634
a(V\u5218
I2996
tp1635
a(V\u88d5
I2991
tp1636
a(V\u5339
I2976
tp1637
a(V\u626b
I2971
tp1638
a(V\u72b9
I2957
tp1639
a(V\u5bbf
I2954
tp1640
a(V\u6208
I2953
tp1641
a(V\u7a0d
I2950
tp1642
a(V\u4f38
I2944
tp1643
a(V\u8343
I2943
tp1644
a(V\u94bb
I2942
tp1645
a(V\u63d2
I2933
tp1646
a(V\u9177
I2932
tp1647
a(V\u6c9f
I2932
tp1648
a(V\u76d7
I2928
tp1649
a(V\u80f6
I2907
tp1650
a(V\u8d60
I2898
tp1651
a(V\u94dd
I2898
tp1652
a(V\u8fc1
I2895
tp1653
a(V\u642c
I2882
tp1654
a(V\u5b55
I2882
tp1655
a(V\u817f
I2881
tp1656
a(V\u7ed8
I2878
tp1657
a(V\u53d9
I2870
tp1658
a(V\u7ebe
I2867
tp1659
a(V\u70bc
I2865
tp1660
a(V\u8bc8
I2862
tp1661
a(V\u4ea8
I2859
tp1662
a(V\u5fe0
I2855
tp1663
a(V\u699c
I2835
tp1664
a(V\u4e11
I2827
tp1665
a(V\u5200
I2807
tp1666
a(V\u67cf
I2806
tp1667
a(V\u95ea
I2791
tp1668
a(V\u5bf8
I2784
tp1669
a(V\u65cb
I2782
tp1670
a(V\u756a
I2772
tp1671
a(V\u6212
I2772
tp1672
a(V\u8f68
I2762
tp1673
a(V\u732a
I2732
tp1674
a(V\u60e7
I2719
tp1675
a(V\u6377
I2718
tp1676
a(V\u5c97
I2715
tp1677
a(V\u7eb5
I2712
tp1678
a(V\u6324
I2712
tp1679
a(V\u5bff
I2707
tp1680
a(V\u8c0e
I2698
tp1681
a(V\u6881
I2691
tp1682
a(V\u51bb
I2682
tp1683
a(V\u80ce
I2681
tp1684
a(V\u79cb
I2679
tp1685
a(V\u6b96
I2670
tp1686
a(V\u989c
I2670
tp1687
a(V\u8475
I2668
tp1688
a(V\u5bd3
I2650
tp1689
a(V\u6108
I2642
tp1690
a(V\u8c8c
I2627
tp1691
a(V\u6d53
I2616
tp1692
a(V\u5389
I2615
tp1693
a(V\u5ca9
I2615
tp1694
a(V\u5443
I2612
tp1695
a(V\u6e34
I2611
tp1696
a(V\u7389
I2605
tp1697
a(V\u50bb
I2602
tp1698
a(V\u5582
I2601
tp1699
a(V\u6668
I2584
tp1700
a(V\u5398
I2581
tp1701
a(V\u7a00
I2578
tp1702
a(V\u5413
I2574
tp1703
a(V\u8352
I2566
tp1704
a(V\u8bf1
I2559
tp1705
a(V\u53a8
I2559
tp1706
a(V\u55b7
I2557
tp1707
a(V\u7ffc
I2556
tp1708
a(V\u730e
I2554
tp1709
a(V\u644a
I2550
tp1710
a(V\u6f58
I2545
tp1711
a(V\u9006
I2538
tp1712
a(V\u79d2
I2537
tp1713
a(V\u4e22
I2537
tp1714
a(V\u997c
I2532
tp1715
a(V\u9897
I2531
tp1716
a(V\u8822
I2523
tp1717
a(V\u626d
I2511
tp1718
a(V\u90ca
I2510
tp1719
a(V\u716e
I2508
tp1720
a(V\u95f2
I2507
tp1721
a(V\u5237
I2506
tp1722
a(V\u98d9
I2506
tp1723
a(V\u60d1
I2505
tp1724
a(V\u6491
I2502
tp1725
a(V\u884d
I2492
tp1726
a(V\u52df
I2478
tp1727
a(V\u6a2a
I2466
tp1728
a(V\u55e8
I2455
tp1729
a(V\u51f6
I2430
tp1730
a(V\u731b
I2427
tp1731
a(V\u7bee
I2424
tp1732
a(V\u58ee
I2423
tp1733
a(V\u51ac
I2420
tp1734
a(V\u7ea0
I2409
tp1735
a(V\u5c3f
I2405
tp1736
a(V\u59d3
I2404
tp1737
a(V\u5baa
I2396
tp1738
a(V\u6db5
I2391
tp1739
a(V\u4ed9
I2387
tp1740
a(V\u75ab
I2386
tp1741
a(V\u88e4
I2382
tp1742
a(V\u5f25
I2378
tp1743
a(V\u4e95
I2378
tp1744
a(V\u7089
I2376
tp1745
a(V\u67f1
I2373
tp1746
a(V\u67f4
I2363
tp1747
a(V\u74dc
I2363
tp1748
a(V\u6731
I2351
tp1749
a(V\u8106
I2349
tp1750
a(V\u4fa7
I2347
tp1751
a(V\u7720
I2347
tp1752
a(V\u6846
I2343
tp1753
a(V\u80a4
I2342
tp1754
a(V\u8000
I2341
tp1755
a(V\u78e8
I2339
tp1756
a(V\u8a79
I2338
tp1757
a(V\u80aa
I2334
tp1758
a(V\u8c31
I2334
tp1759
a(V\u6e83
I2324
tp1760
a(V\u5acc
I2323
tp1761
a(V\u6500
I2318
tp1762
a(V\u7eb9
I2300
tp1763
a(V\u9601
I2298
tp1764
a(V\u6cc4
I2296
tp1765
a(V\u8247
I2291
tp1766
a(V\u903c
I2291
tp1767
a(V\u51dd
I2290
tp1768
a(V\u79bd
I2290
tp1769
a(V\u6e14
I2282
tp1770
a(V\u80a0
I2278
tp1771
a(V\u59ff
I2276
tp1772
a(V\u5962
I2271
tp1773
a(V\u718a
I2271
tp1774
a(V\u54f2
I2270
tp1775
a(V\u8c41
I2266
tp1776
a(V\u8f89
I2263
tp1777
a(V\u7f8a
I2260
tp1778
a(V\u6d2a
I2257
tp1779
a(V\u6ee5
I2252
tp1780
a(V\u7f55
I2250
tp1781
a(V\u64ce
I2244
tp1782
a(V\u4fd7
I2243
tp1783
a(V\u5439
I2242
tp1784
a(V\u9aa4
I2242
tp1785
a(V\u5c65
I2226
tp1786
a(V\u6ef4
I2225
tp1787
a(V\u70e4
I2222
tp1788
a(V\u829d
I2215
tp1789
a(V\u9065
I2215
tp1790
a(V\u808c
I2212
tp1791
a(V\u7433
I2209
tp1792
a(V\u5353
I2208
tp1793
a(V\u7cca
I2204
tp1794
a(V\u5c18
I2202
tp1795
a(V\u60e9
I2201
tp1796
a(V\u68b0
I2197
tp1797
a(V\u4ef0
I2196
tp1798
a(V\u81ed
I2189
tp1799
a(V\u59d1
I2186
tp1800
a(V\u6109
I2183
tp1801
a(V\u5a46
I2176
tp1802
a(V\u9614
I2175
tp1803
a(V\u5ddd
I2173
tp1804
a(V\u70c2
I2171
tp1805
a(V\u8230
I2166
tp1806
a(V\u4f10
I2165
tp1807
a(V\u5ef7
I2155
tp1808
a(V\u76d2
I2148
tp1809
a(V\u7262
I2139
tp1810
a(V\u6768
I2137
tp1811
a(V\u6670
I2129
tp1812
a(V\u6905
I2129
tp1813
a(V\u6572
I2128
tp1814
a(V\u852c
I2111
tp1815
a(V\u5eca
I2104
tp1816
a(V\u52ff
I2103
tp1817
a(V\u68af
I2103
tp1818
a(V\u6653
I2102
tp1819
a(V\u6e7f
I2102
tp1820
a(V\u77a7
I2101
tp1821
a(V\u582a
I2100
tp1822
a(V\u63a9
I2100
tp1823
a(V\u52e4
I2098
tp1824
a(V\u81e3
I2098
tp1825
a(V\u5b54
I2093
tp1826
a(V\u7c92
I2093
tp1827
a(V\u9093
I2086
tp1828
a(V\u5949
I2085
tp1829
a(V\u632b
I2067
tp1830
a(V\u95f9
I2064
tp1831
a(V\u65a5
I2060
tp1832
a(V\u903b
I2054
tp1833
a(V\u90c1
I2050
tp1834
a(V\u5938
I2046
tp1835
a(V\u7518
I2043
tp1836
a(V\u8109
I2036
tp1837
a(V\u6398
I2034
tp1838
a(V\u9c8d
I2034
tp1839
a(V\u4ed3
I2033
tp1840
a(V\u722c
I2029
tp1841
a(V\u8258
I2028
tp1842
a(V\u9017
I2026
tp1843
a(V\u6068
I2021
tp1844
a(V\u6478
I2019
tp1845
a(V\u614c
I2014
tp1846
a(V\u73bb
I2012
tp1847
a(V\u62ef
I2010
tp1848
a(V\u4ec1
I2006
tp1849
a(V\u7275
I2006
tp1850
a(V\u8f88
I2000
tp1851
a(V\u53db
I1999
tp1852
a(V\u8d2c
I1995
tp1853
a(V\u5b99
I1991
tp1854
a(V\u5733
I1991
tp1855
a(V\u80d6
I1983
tp1856
a(V\u5480
I1982
tp1857
a(V\u80f8
I1979
tp1858
a(V\u7eba
I1975
tp1859
a(V\u54ed
I1975
tp1860
a(V\u76d0
I1969
tp1861
a(V\u8a93
I1968
tp1862
a(V\u4e43
I1966
tp1863
a(V\u4f2a
I1966
tp1864
a(V\u80a9
I1962
tp1865
a(V\u5b59
I1959
tp1866
a(V\u60dc
I1954
tp1867
a(V\u5c7f
I1953
tp1868
a(V\u7c97
I1944
tp1869
a(V\u7545
I1943
tp1870
a(V\u9a73
I1942
tp1871
a(V\u5948
I1939
tp1872
a(V\u9189
I1937
tp1873
a(V\u5939
I1936
tp1874
a(V\u5251
I1935
tp1875
a(V\u6ea2
I1932
tp1876
a(V\u6c1b
I1932
tp1877
a(V\u5fa1
I1931
tp1878
a(V\u7a83
I1931
tp1879
a(V\u64b0
I1929
tp1880
a(V\u5319
I1928
tp1881
a(V\u90ce
I1928
tp1882
a(V\u7a1a
I1914
tp1883
a(V\u7cb9
I1914
tp1884
a(V\u708e
I1914
tp1885
a(V\u6167
I1904
tp1886
a(V\u9b42
I1901
tp1887
a(V\u4e32
I1892
tp1888
a(V\u6170
I1892
tp1889
a(V\u543b
I1890
tp1890
a(V\u4e59
I1886
tp1891
a(V\u8d3e
I1880
tp1892
a(V\u58f3
I1880
tp1893
a(V\u60e8
I1880
tp1894
a(V\u6760
I1872
tp1895
a(V\u67ef
I1867
tp1896
a(V\u76fe
I1863
tp1897
a(V\u7272
I1861
tp1898
a(V\u5951
I1857
tp1899
a(V\u52a3
I1846
tp1900
a(V\u54c7
I1846
tp1901
a(V\u8350
I1845
tp1902
a(V\u6323
I1840
tp1903
a(V\u949e
I1839
tp1904
a(V\u8df5
I1838
tp1905
a(V\u526a
I1837
tp1906
a(V\u6254
I1834
tp1907
a(V\u7f62
I1830
tp1908
a(V\u8d54
I1830
tp1909
a(V\u8c05
I1829
tp1910
a(V\u51cc
I1828
tp1911
a(V\u5e3d
I1827
tp1912
a(V\u62fc
I1826
tp1913
a(V\u9022
I1826
tp1914
a(V\u5cad
I1822
tp1915
a(V\u6ede
I1821
tp1916
a(V\u5410
I1818
tp1917
a(V\u70f9
I1815
tp1918
a(V\u8d29
I1814
tp1919
a(V\u5d1b
I1813
tp1920
a(V\u846c
I1812
tp1921
a(V\u6d82
I1798
tp1922
a(V\u5021
I1794
tp1923
a(V\u5435
I1793
tp1924
a(V\u6ee4
I1791
tp1925
a(V\u64e6
I1785
tp1926
a(V\u8427
I1781
tp1927
a(V\u6e23
I1779
tp1928
a(V\u5378
I1777
tp1929
a(V\u6daf
I1769
tp1930
a(V\u4f88
I1766
tp1931
a(V\u7aed
I1764
tp1932
a(V\u5146
I1763
tp1933
a(V\u8086
I1762
tp1934
a(V\u6d45
I1762
tp1935
a(V\u96d5
I1759
tp1936
a(V\u9971
I1758
tp1937
a(V\u70ad
I1755
tp1938
a(V\u9521
I1754
tp1939
a(V\u77db
I1750
tp1940
a(V\u5272
I1743
tp1941
a(V\u5434
I1741
tp1942
a(V\u6321
I1741
tp1943
a(V\u9187
I1740
tp1944
a(V\u62d4
I1740
tp1945
a(V\u75bc
I1738
tp1946
a(V\u76ef
I1737
tp1947
a(V\u8d2f
I1736
tp1948
a(V\u88d4
I1733
tp1949
a(V\u7ed1
I1729
tp1950
a(V\u6676
I1728
tp1951
a(V\u5954
I1728
tp1952
a(V\u81a8
I1728
tp1953
a(V\u7538
I1724
tp1954
a(V\u6d74
I1724
tp1955
a(V\u53d4
I1722
tp1956
a(V\u5a03
I1721
tp1957
a(V\u7f05
I1719
tp1958
a(V\u50b2
I1717
tp1959
a(V\u6b47
I1716
tp1960
a(V\u4f0f
I1716
tp1961
a(V\u5c41
I1714
tp1962
a(V\u817e
I1711
tp1963
a(V\u9a9a
I1707
tp1964
a(V\u4f50
I1706
tp1965
a(V\u601c
I1699
tp1966
a(V\u60a6
I1699
tp1967
a(V\u574e
I1694
tp1968
a(V\u5751
I1691
tp1969
a(V\u7483
I1690
tp1970
a(V\u8702
I1689
tp1971
a(V\u997f
I1687
tp1972
a(V\u61be
I1687
tp1973
a(V\u7bad
I1686
tp1974
a(V\u950b
I1679
tp1975
a(V\u73ca
I1677
tp1976
a(V\u611a
I1675
tp1977
a(V\u5f6d
I1671
tp1978
a(V\u78c1
I1670
tp1979
a(V\u70ae
I1664
tp1980
a(V\u8e0f
I1657
tp1981
a(V\u8fa8
I1655
tp1982
a(V\u8236
I1645
tp1983
a(V\u8bb6
I1644
tp1984
a(V\u7816
I1638
tp1985
a(V\u8d2e
I1637
tp1986
a(V\u7d2b
I1636
tp1987
a(V\u68c9
I1635
tp1988
a(V\u4fa3
I1633
tp1989
a(V\u6cca
I1631
tp1990
a(V\u75f4
I1628
tp1991
a(V\u5b5f
I1628
tp1992
a(V\u9e3f
I1623
tp1993
a(V\u5c48
I1623
tp1994
a(V\u9676
I1622
tp1995
a(V\u517d
I1619
tp1996
a(V\u6606
I1619
tp1997
a(V\u904f
I1617
tp1998
a(V\u57cb
I1616
tp1999
a(V\u5d07
I1615
tp2000
a(V\u8877
I1613
tp2001
a(V\u62ac
I1610
tp2002
a(V\u96a7
I1609
tp2003
a(V\u7af9
I1609
tp2004
a(V\u6c41
I1608
tp2005
a(V\u5bd2
I1604
tp2006
a(V\u6cc9
I1599
tp2007
a(V\u5bb4
I1599
tp2008
a(V\u8bbd
I1594
tp2009
a(V\u871c
I1580
tp2010
a(V\u9610
I1578
tp2011
a(V\u5564
I1577
tp2012
a(V\u8eb2
I1575
tp2013
a(V\u6749
I1573
tp2014
a(V\u7574
I1571
tp2015
a(V\u5915
I1562
tp2016
a(V\u50f5
I1558
tp2017
a(V\u6d66
I1557
tp2018
a(V\u7fc1
I1557
tp2019
a(V\u902e
I1555
tp2020
a(V\u7f69
I1553
tp2021
a(V\u9f3b
I1549
tp2022
a(V\u6f20
I1547
tp2023
a(V\u59a8
I1545
tp2024
a(V\u58e4
I1535
tp2025
a(V\u8f90
I1533
tp2026
a(V\u65a4
I1532
tp2027
a(V\u52ab
I1527
tp2028
a(V\u67d4
I1515
tp2029
a(V\u857e
I1515
tp2030
a(V\u632a
I1510
tp2031
a(V\u9171
I1510
tp2032
a(V\u7f1d
I1509
tp2033
a(V\u6d9b
I1502
tp2034
a(V\u607c
I1499
tp2035
a(V\u558a
I1499
tp2036
a(V\u664b
I1495
tp2037
a(V\u727a
I1490
tp2038
a(V\u6e17
I1489
tp2039
a(V\u90d1
I1485
tp2040
a(V\u5e06
I1483
tp2041
a(V\u9510
I1482
tp2042
a(V\u5367
I1482
tp2043
a(V\u8d3a
I1478
tp2044
a(V\u9b45
I1477
tp2045
a(V\u659c
I1475
tp2046
a(V\u6276
I1473
tp2047
a(V\u4e19
I1472
tp2048
a(V\u51fd
I1472
tp2049
a(V\u8650
I1471
tp2050
a(V\u7267
I1468
tp2051
a(V\u82ad
I1467
tp2052
a(V\u5265
I1465
tp2053
a(V\u82d7
I1463
tp2054
a(V\u541b
I1457
tp2055
a(V\u51e4
I1453
tp2056
a(V\u8d74
I1453
tp2057
a(V\u7ea4
I1448
tp2058
a(V\u94a9
I1448
tp2059
a(V\u5ba0
I1447
tp2060
a(V\u82af
I1439
tp2061
a(V\u758f
I1432
tp2062
a(V\u81c2
I1432
tp2063
a(V\u540a
I1430
tp2064
a(V\u679d
I1427
tp2065
a(V\u789f
I1420
tp2066
a(V\u5e7d
I1413
tp2067
a(V\u5395
I1413
tp2068
a(V\u80c3
I1401
tp2069
a(V\u743c
I1401
tp2070
a(V\u5784
I1400
tp2071
a(V\u5f26
I1399
tp2072
a(V\u953b
I1399
tp2073
a(V\u80ba
I1398
tp2074
a(V\u77f6
I1397
tp2075
a(V\u5f79
I1395
tp2076
a(V\u9063
I1392
tp2077
a(V\u704c
I1387
tp2078
a(V\u62fe
I1386
tp2079
a(V\u84b8
I1385
tp2080
a(V\u64c5
I1381
tp2081
a(V\u6ee8
I1380
tp2082
a(V\u62d8
I1373
tp2083
a(V\u8179
I1371
tp2084
a(V\u75d5
I1368
tp2085
a(V\u7fbd
I1363
tp2086
a(V\u629a
I1359
tp2087
a(V\u5f2f
I1356
tp2088
a(V\u88d9
I1353
tp2089
a(V\u60f9
I1353
tp2090
a(V\u7686
I1353
tp2091
a(V\u8231
I1350
tp2092
a(V\u655e
I1343
tp2093
a(V\u840e
I1341
tp2094
a(V\u7f50
I1339
tp2095
a(V\u626f
I1338
tp2096
a(V\u96fe
I1334
tp2097
a(V\u5349
I1334
tp2098
a(V\u819c
I1325
tp2099
a(V\u56ca
I1324
tp2100
a(V\u755c
I1323
tp2101
a(V\u7ef3
I1319
tp2102
a(V\u4fa6
I1319
tp2103
a(V\u5893
I1318
tp2104
a(V\u94a5
I1316
tp2105
a(V\u79e9
I1316
tp2106
a(V\u9e23
I1314
tp2107
a(V\u8170
I1306
tp2108
a(V\u5524
I1305
tp2109
a(V\u5ce1
I1304
tp2110
a(V\u7eb2
I1304
tp2111
a(V\u96c0
I1302
tp2112
a(V\u8083
I1301
tp2113
a(V\u575e
I1296
tp2114
a(V\u80fa
I1296
tp2115
a(V\u6084
I1294
tp2116
a(V\u60a0
I1293
tp2117
a(V\u5ac1
I1291
tp2118
a(V\u7b3c
I1291
tp2119
a(V\u6349
I1291
tp2120
a(V\u6c2f
I1287
tp2121
a(V\u7a9d
I1287
tp2122
a(V\u50ac
I1285
tp2123
a(V\u8eba
I1281
tp2124
a(V\u72ee
I1279
tp2125
a(V\u541e
I1278
tp2126
a(V\u73c0
I1277
tp2127
a(V\u8c10
I1272
tp2128
a(V\u6735
I1270
tp2129
a(V\u8513
I1270
tp2130
a(V\u5974
I1266
tp2131
a(V\u5782
I1261
tp2132
a(V\u886b
I1259
tp2133
a(V\u7b28
I1255
tp2134
a(V\u7978
I1255
tp2135
a(V\u90ed
I1249
tp2136
a(V\u6591
I1249
tp2137
a(V\u6bbf
I1247
tp2138
a(V\u8fb1
I1246
tp2139
a(V\u8f70
I1245
tp2140
a(V\u76c6
I1242
tp2141
a(V\u5de9
I1240
tp2142
a(V\u4ff8
I1240
tp2143
a(V\u7977
I1237
tp2144
a(V\u7f9e
I1236
tp2145
a(V\u66a8
I1235
tp2146
a(V\u8096
I1235
tp2147
a(V\u94c5
I1235
tp2148
a(V\u72fc
I1234
tp2149
a(V\u5220
I1233
tp2150
a(V\u7948
I1230
tp2151
a(V\u817a
I1230
tp2152
a(V\u535c
I1227
tp2153
a(V\u4ec7
I1224
tp2154
a(V\u7965
I1220
tp2155
a(V\u7891
I1219
tp2156
a(V\u51af
I1219
tp2157
a(V\u723d
I1217
tp2158
a(V\u6dd8
I1217
tp2159
a(V\u845b
I1217
tp2160
a(V\u576a
I1215
tp2161
a(V\u50da
I1212
tp2162
a(V\u8776
I1212
tp2163
a(V\u7838
I1210
tp2164
a(V\u5986
I1210
tp2165
a(V\u6d78
I1205
tp2166
a(V\u8046
I1203
tp2167
a(V\u901d
I1202
tp2168
a(V\u5384
I1199
tp2169
a(V\u5835
I1199
tp2170
a(V\u763e
I1198
tp2171
a(V\u886c
I1196
tp2172
a(V\u6155
I1187
tp2173
a(V\u6094
I1184
tp2174
a(V\u82b3
I1184
tp2175
a(V\u6cea
I1178
tp2176
a(V\u7fe0
I1177
tp2177
a(V\u7334
I1177
tp2178
a(V\u6869
I1170
tp2179
a(V\u72ac
I1166
tp2180
a(V\u679a
I1164
tp2181
a(V\u53c9
I1163
tp2182
a(V\u964c
I1162
tp2183
a(V\u917f
I1161
tp2184
a(V\u57ab
I1161
tp2185
a(V\u9709
I1160
tp2186
a(V\u53f9
I1160
tp2187
a(V\u4fca
I1158
tp2188
a(V\u86c7
I1153
tp2189
a(V\u9738
I1152
tp2190
a(V\u9965
I1149
tp2191
a(V\u6664
I1141
tp2192
a(V\u8d2a
I1138
tp2193
a(V\u533f
I1136
tp2194
a(V\u9f7f
I1133
tp2195
a(V\u7ece
I1133
tp2196
a(V\u88f8
I1133
tp2197
a(V\u84ec
I1131
tp2198
a(V\u7a84
I1129
tp2199
a(V\u62f3
I1128
tp2200
a(V\u78c5
I1126
tp2201
a(V\u5dfe
I1125
tp2202
a(V\u6467
I1124
tp2203
a(V\u584c
I1124
tp2204
a(V\u83b2
I1119
tp2205
a(V\u5589
I1118
tp2206
a(V\u5e05
I1117
tp2207
a(V\u80bf
I1117
tp2208
a(V\u809a
I1113
tp2209
a(V\u6984
I1113
tp2210
a(V\u8c34
I1108
tp2211
a(V\u6d69
I1108
tp2212
a(V\u7855
I1107
tp2213
a(V\u5fcc
I1107
tp2214
a(V\u54ac
I1105
tp2215
a(V\u76f2
I1101
tp2216
a(V\u96b6
I1099
tp2217
a(V\u51c9
I1096
tp2218
a(V\u6cae
I1096
tp2219
a(V\u6dcb
I1096
tp2220
a(V\u5c34
I1095
tp2221
a(V\u8e22
I1094
tp2222
a(V\u5c2c
I1093
tp2223
a(V\u8393
I1090
tp2224
a(V\u7092
I1089
tp2225
a(V\u7845
I1089
tp2226
a(V\u5450
I1088
tp2227
a(V\u7f14
I1087
tp2228
a(V\u65f1
I1086
tp2229
a(V\u5cfb
I1079
tp2230
a(V\u9a84
I1079
tp2231
a(V\u5de2
I1077
tp2232
a(V\u8fa3
I1073
tp2233
a(V\u809d
I1069
tp2234
a(V\u6f06
I1069
tp2235
a(V\u529d
I1066
tp2236
a(V\u906e
I1065
tp2237
a(V\u5c60
I1063
tp2238
a(V\u8d4e
I1061
tp2239
a(V\u98a0
I1061
tp2240
a(V\u660f
I1054
tp2241
a(V\u72ed
I1053
tp2242
a(V\u5594
I1052
tp2243
a(V\u978d
I1051
tp2244
a(V\u5978
I1050
tp2245
a(V\u62b9
I1044
tp2246
a(V\u660c
I1044
tp2247
a(V\u6fd2
I1041
tp2248
a(V\u9e45
I1041
tp2249
a(V\u8c0d
I1041
tp2250
a(V\u9e2d
I1040
tp2251
a(V\u5824
I1034
tp2252
a(V\u8d3f
I1032
tp2253
a(V\u90aa
I1028
tp2254
a(V\u52cb
I1026
tp2255
a(V\u87ba
I1025
tp2256
a(V\u7897
I1021
tp2257
a(V\u81b3
I1021
tp2258
a(V\u9972
I1021
tp2259
a(V\u8273
I1020
tp2260
a(V\u868a
I1017
tp2261
a(V\u55bb
I1016
tp2262
a(V\u9edb
I1013
tp2263
a(V\u5e99
I1012
tp2264
a(V\u606d
I1010
tp2265
a(V\u8c0a
I1010
tp2266
a(V\u754f
I1009
tp2267
a(V\u7199
I1009
tp2268
a(V\u88f9
I1007
tp2269
a(V\u800d
I1007
tp2270
a(V\u5632
I1007
tp2271
a(V\u9489
I1004
tp2272
a(V\u6168
I1000
tp2273
a(V\u4fa0
I996
tp2274
a(V\u7329
I994
tp2275
a(V\u6247
I993
tp2276
a(V\u8180
I993
tp2277
a(V\u54c0
I992
tp2278
a(V\u54aa
I990
tp2279
a(V\u9988
I988
tp2280
a(V\u94c3
I984
tp2281
a(V\u7779
I984
tp2282
a(V\u85af
I981
tp2283
a(V\u53bf
I978
tp2284
a(V\u9e70
I977
tp2285
a(V\u52fe
I976
tp2286
a(V\u821f
I975
tp2287
a(V\u52d8
I974
tp2288
a(V\u5188
I970
tp2289
a(V\u9e7f
I968
tp2290
a(V\u6843
I967
tp2291
a(V\u7f20
I967
tp2292
a(V\u6c40
I966
tp2293
a(V\u9505
I964
tp2294
a(V\u5a05
I964
tp2295
a(V\u56da
I963
tp2296
a(V\u7fd4
I961
tp2297
a(V\u9493
I960
tp2298
a(V\u633d
I956
tp2299
a(V\u4f3d
I955
tp2300
a(V\u4e36
I955
tp2301
a(V\u77ac
I952
tp2302
a(V\u8680
I951
tp2303
a(V\u7f06
I949
tp2304
a(V\u5deb
I946
tp2305
a(V\u8521
I946
tp2306
a(V\u4ef2
I938
tp2307
a(V\u6021
I936
tp2308
a(V\u9888
I936
tp2309
a(V\u53e0
I934
tp2310
a(V\u6eaf
I931
tp2311
a(V\u4e1b
I930
tp2312
a(V\u5018
I929
tp2313
a(V\u57ae
I928
tp2314
a(V\u77e9
I924
tp2315
a(V\u5578
I923
tp2316
a(V\u90e1
I920
tp2317
a(V\u745a
I919
tp2318
a(V\u6691
I917
tp2319
a(V\u6eb6
I916
tp2320
a(V\u8f69
I915
tp2321
a(V\u5492
I915
tp2322
a(V\u6e9c
I912
tp2323
a(V\u65ec
I912
tp2324
a(V\u8f74
I909
tp2325
a(V\u8304
I908
tp2326
a(V\u94ed
I906
tp2327
a(V\u6454
I906
tp2328
a(V\u9523
I904
tp2329
a(V\u820c
I901
tp2330
a(V\u66dd
I900
tp2331
a(V\u680b
I900
tp2332
a(V\u8721
I899
tp2333
a(V\u5bfa
I897
tp2334
a(V\u803b
I896
tp2335
a(V\u5792
I893
tp2336
a(V\u82d1
I893
tp2337
a(V\u5bb0
I890
tp2338
a(V\u4e18
I890
tp2339
a(V\u6a61
I889
tp2340
a(V\u5026
I888
tp2341
a(V\u819d
I887
tp2342
a(V\u5760
I884
tp2343
a(V\u8c1c
I881
tp2344
a(V\u61d2
I880
tp2345
a(V\u62a8
I877
tp2346
a(V\u5375
I876
tp2347
a(V\u68d8
I876
tp2348
a(V\u6c22
I872
tp2349
a(V\u6251
I872
tp2350
a(V\u5306
I871
tp2351
a(V\u6bef
I870
tp2352
a(V\u548e
I867
tp2353
a(V\u6401
I865
tp2354
a(V\u7709
I865
tp2355
a(V\u8154
I864
tp2356
a(V\u5351
I863
tp2357
a(V\u5f90
I862
tp2358
a(V\u6d46
I862
tp2359
a(V\u575d
I860
tp2360
a(V\u7a23
I856
tp2361
a(V\u916a
I852
tp2362
a(V\u94ae
I852
tp2363
a(V\u6734
I851
tp2364
a(V\u4e56
I847
tp2365
a(V\u51f8
I846
tp2366
a(V\u6d12
I846
tp2367
a(V\u7626
I844
tp2368
a(V\u82ef
I844
tp2369
a(V\u6a44
I842
tp2370
a(V\u95ef
I841
tp2371
a(V\u68d5
I838
tp2372
a(V\u6655
I838
tp2373
a(V\u8f9c
I837
tp2374
a(V\u80a2
I836
tp2375
a(V\u5f0a
I835
tp2376
a(V\u8d24
I835
tp2377
a(V\u5be1
I834
tp2378
a(V\u98d8
I834
tp2379
a(V\u68f5
I834
tp2380
a(V\u8c2c
I833
tp2381
a(V\u76ce
I831
tp2382
a(V\u72c4
I830
tp2383
a(V\u7470
I830
tp2384
a(V\u4e53
I824
tp2385
a(V\u5154
I823
tp2386
a(V\u9896
I823
tp2387
a(V\u780d
I823
tp2388
a(V\u9e26
I822
tp2389
a(V\u6177
I822
tp2390
a(V\u67af
I820
tp2391
a(V\u71d5
I818
tp2392
a(V\u7b52
I818
tp2393
a(V\u70ac
I817
tp2394
a(V\u6dd1
I813
tp2395
a(V\u78cb
I813
tp2396
a(V\u4e52
I813
tp2397
a(V\u5937
I812
tp2398
a(V\u6816
I811
tp2399
a(V\u9a82
I811
tp2400
a(V\u95f7
I808
tp2401
a(V\u4ed5
I807
tp2402
a(V\u786b
I807
tp2403
a(V\u7c98
I805
tp2404
a(V\u6eaa
I805
tp2405
a(V\u594e
I805
tp2406
a(V\u589f
I804
tp2407
a(V\u7624
I802
tp2408
a(V\u745c
I798
tp2409
a(V\u54ce
I797
tp2410
a(V\u6deb
I796
tp2411
a(V\u9ca8
I796
tp2412
a(V\u74f7
I795
tp2413
a(V\u8c6b
I794
tp2414
a(V\u4f51
I794
tp2415
a(V\u97f5
I793
tp2416
a(V\u8d31
I793
tp2417
a(V\u7750
I792
tp2418
a(V\u7f38
I792
tp2419
a(V\u78a7
I791
tp2420
a(V\u77a9
I790
tp2421
a(V\u853d
I790
tp2422
a(V\u9a70
I789
tp2423
a(V\u8f9f
I789
tp2424
a(V\u548b
I788
tp2425
a(V\u5be8
I787
tp2426
a(V\u5815
I787
tp2427
a(V\u6614
I786
tp2428
a(V\u82cd
I785
tp2429
a(V\u8774
I783
tp2430
a(V\u6405
I783
tp2431
a(V\u6c5e
I781
tp2432
a(V\u8302
I781
tp2433
a(V\u6f6d
I780
tp2434
a(V\u7792
I778
tp2435
a(V\u4ec6
I775
tp2436
a(V\u4e2b
I773
tp2437
a(V\u7586
I767
tp2438
a(V\u7b4b
I764
tp2439
a(V\u810a
I764
tp2440
a(V\u8854
I760
tp2441
a(V\u6bcb
I749
tp2442
a(V\u85c9
I746
tp2443
a(V\u6367
I745
tp2444
a(V\u68cb
I744
tp2445
a(V\u7a74
I743
tp2446
a(V\u6fa1
I743
tp2447
a(V\u6da1
I742
tp2448
a(V\u6643
I741
tp2449
a(V\u5580
I740
tp2450
a(V\u7fc5
I739
tp2451
a(V\u77ee
I735
tp2452
a(V\u8c79
I735
tp2453
a(V\u9038
I732
tp2454
a(V\u836b
I730
tp2455
a(V\u85e4
I729
tp2456
a(V\u867e
I729
tp2457
a(V\u8d41
I728
tp2458
a(V\u9cb8
I727
tp2459
a(V\u68ad
I727
tp2460
a(V\u96cc
I725
tp2461
a(V\u8f7f
I724
tp2462
a(V\u5254
I724
tp2463
a(V\u70ef
I723
tp2464
a(V\u68cd
I723
tp2465
a(V\u6328
I723
tp2466
a(V\u7ef5
I723
tp2467
a(V\u5618
I723
tp2468
a(V\u5eb8
I722
tp2469
a(V\u9f9f
I721
tp2470
a(V\u59dc
I720
tp2471
a(V\u7ad6
I720
tp2472
a(V\u82bd
I716
tp2473
a(V\u5993
I714
tp2474
a(V\u8760
I712
tp2475
a(V\u5507
I712
tp2476
a(V\u841d
I711
tp2477
a(V\u8679
I711
tp2478
a(V\u6d85
I709
tp2479
a(V\u54af
I707
tp2480
a(V\u6064
I706
tp2481
a(V\u6241
I705
tp2482
a(V\u8d81
I705
tp2483
a(V\u51d1
I704
tp2484
a(V\u7bf7
I702
tp2485
a(V\u6842
I701
tp2486
a(V\u5fbd
I701
tp2487
a(V\u8c26
I699
tp2488
a(V\u4e38
I698
tp2489
a(V\u53a2
I697
tp2490
a(V\u6d3d
I696
tp2491
a(V\u5d2d
I696
tp2492
a(V\u6a59
I696
tp2493
a(V\u6055
I693
tp2494
a(V\u73ab
I692
tp2495
a(V\u60d5
I692
tp2496
a(V\u9631
I690
tp2497
a(V\u8e81
I688
tp2498
a(V\u683d
I687
tp2499
a(V\u6495
I685
tp2500
a(V\u94a6
I685
tp2501
a(V\u5598
I683
tp2502
a(V\u5308
I683
tp2503
a(V\u6652
I679
tp2504
a(V\u971c
I678
tp2505
a(V\u5320
I678
tp2506
a(V\u8c2d
I676
tp2507
a(V\u6d51
I675
tp2508
a(V\u8292
I674
tp2509
a(V\u8c5a
I673
tp2510
a(V\u4f6c
I673
tp2511
a(V\u51a5
I671
tp2512
a(V\u5ae9
I670
tp2513
a(V\u86ee
I669
tp2514
a(V\u5b5a
I668
tp2515
a(V\u4ead
I666
tp2516
a(V\u9882
I665
tp2517
a(V\u8d75
I665
tp2518
a(V\u6487
I665
tp2519
a(V\u5b8b
I665
tp2520
a(V\u76fc
I663
tp2521
a(V\u69fd
I662
tp2522
a(V\u8299
I661
tp2523
a(V\u6bc5
I661
tp2524
a(V\u7caa
I661
tp2525
a(V\u68da
I661
tp2526
a(V\u6cfc
I660
tp2527
a(V\u6cf5
I659
tp2528
a(V\u8d50
I659
tp2529
a(V\u778e
I658
tp2530
a(V\u6f84
I657
tp2531
a(V\u86db
I657
tp2532
a(V\u8d9f
I657
tp2533
a(V\u4faf
I656
tp2534
a(V\u7eb1
I655
tp2535
a(V\u5587
I655
tp2536
a(V\u72e0
I653
tp2537
a(V\u8e29
I652
tp2538
a(V\u640f
I649
tp2539
a(V\u54b8
I649
tp2540
a(V\u5ac9
I646
tp2541
a(V\u7529
I644
tp2542
a(V\u7741
I641
tp2543
a(V\u8015
I640
tp2544
a(V\u714e
I640
tp2545
a(V\u71e5
I639
tp2546
a(V\u6de4
I639
tp2547
a(V\u8759
I636
tp2548
a(V\u84b2
I635
tp2549
a(V\u54df
I635
tp2550
a(V\u73b2
I634
tp2551
a(V\u86d9
I634
tp2552
a(V\u6c30
I631
tp2553
a(V\u57d7
I630
tp2554
a(V\u5e62
I629
tp2555
a(V\u52c9
I626
tp2556
a(V\u5992
I625
tp2557
a(V\u9b4f
I624
tp2558
a(V\u537f
I622
tp2559
a(V\u7f24
I621
tp2560
a(V\u64bc
I620
tp2561
a(V\u72d0
I619
tp2562
a(V\u5bb5
I618
tp2563
a(V\u901b
I617
tp2564
a(V\u914b
I616
tp2565
a(V\u9f0e
I616
tp2566
a(V\u70ab
I615
tp2567
a(V\u8747
I614
tp2568
a(V\u85fb
I614
tp2569
a(V\u5e16
I613
tp2570
a(V\u6eba
I612
tp2571
a(V\u4ed1
I611
tp2572
a(V\u8587
I611
tp2573
a(V\u9b41
I610
tp2574
a(V\u621a
I607
tp2575
a(V\u682a
I607
tp2576
a(V\u67f3
I607
tp2577
a(V\u6cbe
I607
tp2578
a(V\u762b
I606
tp2579
a(V\u8be0
I605
tp2580
a(V\u6cfb
I604
tp2581
a(V\u69df
I603
tp2582
a(V\u7fcc
I602
tp2583
a(V\u80be
I602
tp2584
a(V\u5c51
I601
tp2585
a(V\u5703
I600
tp2586
a(V\u8354
I599
tp2587
a(V\u70d8
I598
tp2588
a(V\u515c
I598
tp2589
a(V\u6380
I596
tp2590
a(V\u8116
I596
tp2591
a(V\u5c61
I596
tp2592
a(V\u8be1
I596
tp2593
a(V\u5d16
I594
tp2594
a(V\u5984
I592
tp2595
a(V\u609f
I592
tp2596
a(V\u64ae
I590
tp2597
a(V\u634d
I589
tp2598
a(V\u6df9
I589
tp2599
a(V\u5669
I588
tp2600
a(V\u94c0
I587
tp2601
a(V\u7c3f
I587
tp2602
a(V\u8c23
I586
tp2603
a(V\u8bc0
I584
tp2604
a(V\u5960
I584
tp2605
a(V\u5415
I583
tp2606
a(V\u71ac
I583
tp2607
a(V\u5d4c
I582
tp2608
a(V\u5e87
I581
tp2609
a(V\u6c70
I580
tp2610
a(V\u7ae3
I580
tp2611
a(V\u785d
I580
tp2612
a(V\u68b3
I579
tp2613
a(V\u5bc2
I579
tp2614
a(V\u7b5b
I576
tp2615
a(V\u8d42
I576
tp2616
a(V\u7802
I576
tp2617
a(V\u522e
I573
tp2618
a(V\u7239
I572
tp2619
a(V\u8038
I572
tp2620
a(V\u62e6
I572
tp2621
a(V\u7784
I569
tp2622
a(V\u575f
I569
tp2623
a(V\u6127
I569
tp2624
a(V\u9977
I568
tp2625
a(V\u987d
I568
tp2626
a(V\u831c
I566
tp2627
a(V\u9e9f
I566
tp2628
a(V\u4f1e
I564
tp2629
a(V\u4f8d
I564
tp2630
a(V\u70db
I563
tp2631
a(V\u4fef
I561
tp2632
a(V\u4ea5
I560
tp2633
a(V\u6bd7
I559
tp2634
a(V\u5c4e
I558
tp2635
a(V\u54fa
I556
tp2636
a(V\u4ed7
I555
tp2637
a(V\u532a
I554
tp2638
a(V\u8d3c
I553
tp2639
a(V\u662d
I552
tp2640
a(V\u63a0
I552
tp2641
a(V\u8681
I552
tp2642
a(V\u6cbc
I552
tp2643
a(V\u638f
I550
tp2644
a(V\u61c8
I549
tp2645
a(V\u5239
I548
tp2646
a(V\u59ec
I548
tp2647
a(V\u98d3
I547
tp2648
a(V\u5455
I547
tp2649
a(V\u63fd
I546
tp2650
a(V\u5d14
I543
tp2651
a(V\u67a2
I542
tp2652
a(V\u818f
I541
tp2653
a(V\u5885
I539
tp2654
a(V\u599e
I539
tp2655
a(V\u8155
I538
tp2656
a(V\u714c
I536
tp2657
a(V\u94be
I536
tp2658
a(V\u742a
I534
tp2659
a(V\u82db
I534
tp2660
a(V\u832b
I531
tp2661
a(V\u788c
I531
tp2662
a(V\u6c9b
I530
tp2663
a(V\u5a6a
I529
tp2664
a(V\u6912
I529
tp2665
a(V\u7901
I529
tp2666
a(V\u7b1b
I529
tp2667
a(V\u67ec
I528
tp2668
a(V\u6361
I528
tp2669
a(V\u7194
I525
tp2670
a(V\u7ec5
I521
tp2671
a(V\u75ea
I521
tp2672
a(V\u818a
I520
tp2673
a(V\u98a4
I520
tp2674
a(V\u68a8
I519
tp2675
a(V\u6320
I518
tp2676
a(V\u94a0
I518
tp2677
a(V\u7f1a
I517
tp2678
a(V\u627c
I517
tp2679
a(V\u62d0
I517
tp2680
a(V\u7130
I515
tp2681
a(V\u5a36
I515
tp2682
a(V\u711a
I514
tp2683
a(V\u5f70
I514
tp2684
a(V\u796d
I512
tp2685
a(V\u5f99
I511
tp2686
a(V\u7ed2
I510
tp2687
a(V\u6c88
I510
tp2688
a(V\u813e
I509
tp2689
a(V\u9774
I509
tp2690
a(V\u8718
I508
tp2691
a(V\u6795
I507
tp2692
a(V\u83ca
I506
tp2693
a(V\u5475
I503
tp2694
a(V\u635e
I503
tp2695
a(V\u6a71
I502
tp2696
a(V\u5256
I501
tp2697
a(V\u9976
I500
tp2698
a(V\u6c28
I499
tp2699
a(V\u7682
I499
tp2700
a(V\u6284
I498
tp2701
a(V\u8574
I498
tp2702
a(V\u6296
I498
tp2703
a(V\u60df
I498
tp2704
a(V\u59e8
I497
tp2705
a(V\u6577
I497
tp2706
a(V\u996a
I496
tp2707
a(V\u8beb
I496
tp2708
a(V\u8471
I496
tp2709
a(V\u6ccc
I496
tp2710
a(V\u6c72
I495
tp2711
a(V\u8305
I494
tp2712
a(V\u543e
I493
tp2713
a(V\u5df7
I490
tp2714
a(V\u889c
I489
tp2715
a(V\u54e8
I486
tp2716
a(V\u6674
I485
tp2717
a(V\u83f1
I484
tp2718
a(V\u82a6
I484
tp2719
a(V\u725f
I482
tp2720
a(V\u80f3
I482
tp2721
a(V\u532e
I480
tp2722
a(V\u9a86
I479
tp2723
a(V\u76b1
I479
tp2724
a(V\u5c09
I479
tp2725
a(V\u8367
I478
tp2726
a(V\u9eef
I475
tp2727
a(V\u5be5
I474
tp2728
a(V\u6590
I473
tp2729
a(V\u7410
I471
tp2730
a(V\u62f1
I470
tp2731
a(V\u91af
I468
tp2732
a(V\u722a
I466
tp2733
a(V\u964b
I466
tp2734
a(V\u79e6
I466
tp2735
a(V\u63b7
I465
tp2736
a(V\u6cb8
I465
tp2737
a(V\u7ef8
I464
tp2738
a(V\u7f09
I464
tp2739
a(V\u914c
I463
tp2740
a(V\u7a3b
I462
tp2741
a(V\u9699
I461
tp2742
a(V\u70f7
I461
tp2743
a(V\u80ae
I461
tp2744
a(V\u4e4d
I461
tp2745
a(V\u7a3d
I459
tp2746
a(V\u6bd9
I459
tp2747
a(V\u5a49
I458
tp2748
a(V\u6dc0
I457
tp2749
a(V\u6ca6
I457
tp2750
a(V\u76d4
I456
tp2751
a(V\u9877
I455
tp2752
a(V\u501a
I454
tp2753
a(V\u54ad
I454
tp2754
a(V\u9ad3
I453
tp2755
a(V\u8bc5
I452
tp2756
a(V\u85b0
I450
tp2757
a(V\u5eff
I449
tp2758
a(V\u62d9
I448
tp2759
a(V\u5631
I447
tp2760
a(V\u65a7
I446
tp2761
a(V\u885e
I446
tp2762
a(V\u916e
I446
tp2763
a(V\u60bc
I445
tp2764
a(V\u4f3a
I444
tp2765
a(V\u62f7
I441
tp2766
a(V\u69db
I441
tp2767
a(V\u78b1
I441
tp2768
a(V\u6ce3
I441
tp2769
a(V\u7f2a
I440
tp2770
a(V\u5f66
I439
tp2771
a(V\u5112
I439
tp2772
a(V\u80f0
I438
tp2773
a(V\u5364
I437
tp2774
a(V\u68b5
I437
tp2775
a(V\u7fa1
I436
tp2776
a(V\u830e
I435
tp2777
a(V\u63cd
I434
tp2778
a(V\u9ae6
I433
tp2779
a(V\u79be
I433
tp2780
a(V\u543c
I432
tp2781
a(V\u6c2e
I431
tp2782
a(V\u9761
I430
tp2783
a(V\u888d
I429
tp2784
a(V\u8549
I427
tp2785
a(V\u759a
I427
tp2786
a(V\u9640
I427
tp2787
a(V\u971e
I427
tp2788
a(V\u6e0a
I426
tp2789
a(V\u89c5
I426
tp2790
a(V\u8dbe
I425
tp2791
a(V\u9675
I425
tp2792
a(V\u618e
I425
tp2793
a(V\u8206
I424
tp2794
a(V\u7a8d
I423
tp2795
a(V\u817b
I423
tp2796
a(V\u7aa5
I423
tp2797
a(V\u9600
I422
tp2798
a(V\u4e9f
I421
tp2799
a(V\u9985
I420
tp2800
a(V\u8845
I418
tp2801
a(V\u75d2
I417
tp2802
a(V\u6289
I417
tp2803
a(V\u5085
I417
tp2804
a(V\u6977
I417
tp2805
a(V\u717d
I412
tp2806
a(V\u67e0
I412
tp2807
a(V\u840c
I411
tp2808
a(V\u916f
I411
tp2809
a(V\u9175
I411
tp2810
a(V\u58f6
I411
tp2811
a(V\u777f
I409
tp2812
a(V\u66f9
I409
tp2813
a(V\u9499
I408
tp2814
a(V\u9119
I408
tp2815
a(V\u8f99
I406
tp2816
a(V\u68e0
I406
tp2817
a(V\u6aac
I406
tp2818
a(V\u8dfb
I405
tp2819
a(V\u54fc
I404
tp2820
a(V\u674f
I402
tp2821
a(V\u9157
I402
tp2822
a(V\u8db4
I401
tp2823
a(V\u55c5
I398
tp2824
a(V\u6d95
I397
tp2825
a(V\u9524
I397
tp2826
a(V\u7b5d
I397
tp2827
a(V\u6c76
I394
tp2828
a(V\u62cc
I394
tp2829
a(V\u631a
I393
tp2830
a(V\u548f
I391
tp2831
a(V\u94f2
I390
tp2832
a(V\u5f27
I390
tp2833
a(V\u8087
I388
tp2834
a(V\u59ca
I388
tp2835
a(V\u7115
I388
tp2836
a(V\u8e72
I388
tp2837
a(V\u8db8
I387
tp2838
a(V\u508d
I387
tp2839
a(V\u65f7
I387
tp2840
a(V\u572d
I385
tp2841
a(V\u5f98
I384
tp2842
a(V\u5f8a
I384
tp2843
a(V\u9176
I383
tp2844
a(V\u5b09
I383
tp2845
a(V\u9e64
I382
tp2846
a(V\u5d0e
I381
tp2847
a(V\u6ed5
I381
tp2848
a(V\u9ecf
I380
tp2849
a(V\u94f8
I380
tp2850
a(V\u9cc4
I379
tp2851
a(V\u6d59
I379
tp2852
a(V\u79a7
I378
tp2853
a(V\u676d
I378
tp2854
a(V\u97e7
I378
tp2855
a(V\u5a07
I377
tp2856
a(V\u6096
I377
tp2857
a(V\u658c
I376
tp2858
a(V\u87f9
I375
tp2859
a(V\u9ca4
I375
tp2860
a(V\u8910
I373
tp2861
a(V\u97ad
I373
tp2862
a(V\u5457
I373
tp2863
a(V\u5a4a
I373
tp2864
a(V\u6b6a
I372
tp2865
a(V\u9ab8
I370
tp2866
a(V\u5f13
I370
tp2867
a(V\u7a92
I370
tp2868
a(V\u5484
I369
tp2869
a(V\u6346
I369
tp2870
a(V\u6dc7
I369
tp2871
a(V\u4fae
I366
tp2872
a(V\u6d47
I366
tp2873
a(V\u5e18
I366
tp2874
a(V\u51f0
I365
tp2875
a(V\u6101
I365
tp2876
a(V\u5996
I365
tp2877
a(V\u9576
I363
tp2878
a(V\u7ede
I362
tp2879
a(V\u766b
I362
tp2880
a(V\u70eb
I361
tp2881
a(V\u55a7
I360
tp2882
a(V\u51b6
I359
tp2883
a(V\u4fed
I358
tp2884
a(V\u6073
I358
tp2885
a(V\u9716
I357
tp2886
a(V\u70b3
I356
tp2887
a(V\u7c7d
I356
tp2888
a(V\u8d1e
I356
tp2889
a(V\u707f
I356
tp2890
a(V\u53ee
I356
tp2891
a(V\u9abc
I355
tp2892
a(V\u67c4
I355
tp2893
a(V\u71ca
I354
tp2894
a(V\u75b9
I354
tp2895
a(V\u8eaf
I354
tp2896
a(V\u8fb0
I353
tp2897
a(V\u6930
I353
tp2898
a(V\u952f
I353
tp2899
a(V\u5ed6
I353
tp2900
a(V\u634f
I352
tp2901
a(V\u4fd8
I351
tp2902
a(V\u51ff
I350
tp2903
a(V\u54b3
I350
tp2904
a(V\u962e
I348
tp2905
a(V\u8165
I348
tp2906
a(V\u5e1c
I348
tp2907
a(V\u6363
I347
tp2908
a(V\u9e3d
I346
tp2909
a(V\u5f6c
I346
tp2910
a(V\u4e5e
I345
tp2911
a(V\u80da
I345
tp2912
a(V\u54c4
I345
tp2913
a(V\u61a9
I343
tp2914
a(V\u7f00
I343
tp2915
a(V\u6988
I342
tp2916
a(V\u59da
I341
tp2917
a(V\u9a6f
I340
tp2918
a(V\u8403
I340
tp2919
a(V\u54bd
I340
tp2920
a(V\u6da9
I340
tp2921
a(V\u8fed
I339
tp2922
a(V\u6f9c
I338
tp2923
a(V\u69a8
I338
tp2924
a(V\u9508
I338
tp2925
a(V\u5dc5
I338
tp2926
a(V\u6687
I338
tp2927
a(V\u60eb
I336
tp2928
a(V\u79c9
I336
tp2929
a(V\u9f9a
I336
tp2930
a(V\u690e
I336
tp2931
a(V\u95f8
I336
tp2932
a(V\u54ee
I336
tp2933
a(V\u5fe1
I335
tp2934
a(V\u99a8
I335
tp2935
a(V\u5cb3
I334
tp2936
a(V\u9706
I334
tp2937
a(V\u65a9
I334
tp2938
a(V\u8e0a
I333
tp2939
a(V\u849c
I333
tp2940
a(V\u9a8f
I332
tp2941
a(V\u4ea9
I332
tp2942
a(V\u7a9f
I331
tp2943
a(V\u516e
I331
tp2944
a(V\u7656
I331
tp2945
a(V\u8331
I331
tp2946
a(V\u8682
I330
tp2947
a(V\u81c0
I330
tp2948
a(V\u56a3
I329
tp2949
a(V\u7fd8
I329
tp2950
a(V\u6caa
I329
tp2951
a(V\u6bb7
I327
tp2952
a(V\u56b7
I327
tp2953
a(V\u6dc6
I326
tp2954
a(V\u78e1
I326
tp2955
a(V\u6c6a
I326
tp2956
a(V\u79c3
I326
tp2957
a(V\u7504
I325
tp2958
a(V\u7ef0
I323
tp2959
a(V\u8815
I323
tp2960
a(V\u7011
I323
tp2961
a(V\u68fa
I323
tp2962
a(V\u8654
I323
tp2963
a(V\u6151
I323
tp2964
a(V\u62e3
I322
tp2965
a(V\u608d
I321
tp2966
a(V\u776b
I320
tp2967
a(V\u7881
I319
tp2968
a(V\u90b5
I318
tp2969
a(V\u55d3
I317
tp2970
a(V\u62e2
I317
tp2971
a(V\u72e9
I316
tp2972
a(V\u70c1
I315
tp2973
a(V\u759f
I315
tp2974
a(V\u7985
I314
tp2975
a(V\u56bc
I314
tp2976
a(V\u75f9
I314
tp2977
a(V\u9b44
I314
tp2978
a(V\u53e8
I313
tp2979
a(V\u8814
I313
tp2980
a(V\u52fa
I313
tp2981
a(V\u8335
I313
tp2982
a(V\u965b
I313
tp2983
a(V\u72f8
I312
tp2984
a(V\u7729
I312
tp2985
a(V\u5366
I311
tp2986
a(V\u6538
I311
tp2987
a(V\u50e7
I311
tp2988
a(V\u6e5b
I310
tp2989
a(V\u60f0
I310
tp2990
a(V\u8dea
I310
tp2991
a(V\u9e4f
I310
tp2992
a(V\u9a74
I308
tp2993
a(V\u5029
I307
tp2994
a(V\u69b4
I307
tp2995
a(V\u777e
I306
tp2996
a(V\u9661
I306
tp2997
a(V\u7280
I306
tp2998
a(V\u8511
I306
tp2999
a(V\u4eb5
I305
tp3000
a(V\u80b4
I304
tp3001
a(V\u77bb
I303
tp3002
a(V\u8205
I303
tp3003
a(V\u6e85
I301
tp3004
a(V\u5a29
I300
tp3005
a(V\u9042
I300
tp3006
a(V\u6c1f
I300
tp3007
a(V\u7b95
I299
tp3008
a(V\u4fa8
I299
tp3009
a(V\u61e6
I299
tp3010
a(V\u51f3
I298
tp3011
a(V\u8b6c
I298
tp3012
a(V\u5c8c
I297
tp3013
a(V\u6656
I297
tp3014
a(V\u707c
I297
tp3015
a(V\u63ba
I296
tp3016
a(V\u803f
I296
tp3017
a(V\u5955
I296
tp3018
a(V\u5300
I296
tp3019
a(V\u77eb
I295
tp3020
a(V\u6233
I295
tp3021
a(V\u56e4
I294
tp3022
a(V\u918b
I293
tp3023
a(V\u8e66
I293
tp3024
a(V\u5509
I292
tp3025
a(V\u803d
I292
tp3026
a(V\u8bf5
I291
tp3027
a(V\u5197
I290
tp3028
a(V\u848b
I290
tp3029
a(V\u9556
I290
tp3030
a(V\u5ab2
I289
tp3031
a(V\u7d0a
I289
tp3032
a(V\u5203
I289
tp3033
a(V\u7184
I289
tp3034
a(V\u915d
I289
tp3035
a(V\u6bb4
I289
tp3036
a(V\u77b0
I289
tp3037
a(V\u9a7c
I288
tp3038
a(V\u804b
I288
tp3039
a(V\u9756
I288
tp3040
a(V\u7099
I288
tp3041
a(V\u8bb3
I287
tp3042
a(V\u83c7
I286
tp3043
a(V\u7384
I286
tp3044
a(V\u814c
I286
tp3045
a(V\u954d
I285
tp3046
a(V\u9668
I285
tp3047
a(V\u54d1
I283
tp3048
a(V\u6452
I283
tp3049
a(V\u951a
I283
tp3050
a(V\u6e3a
I281
tp3051
a(V\u7422
I280
tp3052
a(V\u55dc
I280
tp3053
a(V\u7856
I280
tp3054
a(V\u88e8
I280
tp3055
a(V\u5983
I280
tp3056
a(V\u72e1
I279
tp3057
a(V\u840d
I279
tp3058
a(V\u7cd9
I278
tp3059
a(V\u78f7
I278
tp3060
a(V\u5ed3
I278
tp3061
a(V\u5dff
I277
tp3062
a(V\u7eca
I277
tp3063
a(V\u64d8
I277
tp3064
a(V\u7b72
I276
tp3065
a(V\u6627
I275
tp3066
a(V\u4f84
I274
tp3067
a(V\u8346
I274
tp3068
a(V\u5499
I274
tp3069
a(V\u6d63
I273
tp3070
a(V\u8098
I273
tp3071
a(V\u566c
I273
tp3072
a(V\u9a87
I272
tp3073
a(V\u7ef7
I269
tp3074
a(V\u622e
I269
tp3075
a(V\u95fa
I268
tp3076
a(V\u9540
I268
tp3077
a(V\u75a4
I266
tp3078
a(V\u9549
I266
tp3079
a(V\u5f57
I266
tp3080
a(V\u6273
I266
tp3081
a(V\u7554
I265
tp3082
a(V\u673d
I264
tp3083
a(V\u8137
I264
tp3084
a(V\u83bd
I264
tp3085
a(V\u7837
I264
tp3086
a(V\u6a58
I264
tp3087
a(V\u62fd
I264
tp3088
a(V\u4f36
I263
tp3089
a(V\u658b
I262
tp3090
a(V\u83c5
I261
tp3091
a(V\u839e
I260
tp3092
a(V\u7261
I260
tp3093
a(V\u541f
I260
tp3094
a(V\u7ca5
I260
tp3095
a(V\u7949
I260
tp3096
a(V\u7eac
I260
tp3097
a(V\u6c13
I259
tp3098
a(V\u5cd9
I259
tp3099
a(V\u6c5d
I259
tp3100
a(V\u780c
I259
tp3101
a(V\u55bd
I259
tp3102
a(V\u5243
I258
tp3103
a(V\u51f9
I258
tp3104
a(V\u7a57
I257
tp3105
a(V\u63e3
I257
tp3106
a(V\u6da4
I256
tp3107
a(V\u7a98
I256
tp3108
a(V\u8235
I256
tp3109
a(V\u9890
I255
tp3110
a(V\u7455
I252
tp3111
a(V\u7b0b
I251
tp3112
a(V\u5583
I251
tp3113
a(V\u6a31
I250
tp3114
a(V\u950c
I250
tp3115
a(V\u6c90
I250
tp3116
a(V\u6805
I249
tp3117
a(V\u83e0
I249
tp3118
a(V\u5ced
I249
tp3119
a(V\u70c3
I249
tp3120
a(V\u6ca5
I249
tp3121
a(V\u5b9b
I248
tp3122
a(V\u8725
I246
tp3123
a(V\u919b
I246
tp3124
a(V\u7c27
I246
tp3125
a(V\u5514
I245
tp3126
a(V\u8d66
I245
tp3127
a(V\u62c7
I245
tp3128
a(V\u892a
I245
tp3129
a(V\u5a9a
I245
tp3130
a(V\u94d0
I244
tp3131
a(V\u5321
I243
tp3132
a(V\u9698
I243
tp3133
a(V\u50fb
I242
tp3134
a(V\u7b03
I242
tp3135
a(V\u5c39
I242
tp3136
a(V\u6813
I241
tp3137
a(V\u82a5
I241
tp3138
a(V\u7f81
I241
tp3139
a(V\u70bd
I241
tp3140
a(V\u5495
I240
tp3141
a(V\u5f08
I240
tp3142
a(V\u545c
I240
tp3143
a(V\u68f1
I240
tp3144
a(V\u962a
I240
tp3145
a(V\u67ab
I239
tp3146
a(V\u6756
I239
tp3147
a(V\u733f
I239
tp3148
a(V\u609a
I237
tp3149
a(V\u5f18
I237
tp3150
a(V\u949d
I236
tp3151
a(V\u783e
I236
tp3152
a(V\u5c91
I235
tp3153
a(V\u715e
I235
tp3154
a(V\u5bde
I235
tp3155
a(V\u5b5d
I235
tp3156
a(V\u847a
I235
tp3157
a(V\u7ee3
I234
tp3158
a(V\u6666
I233
tp3159
a(V\u5c49
I233
tp3160
a(V\u7172
I232
tp3161
a(V\u7728
I232
tp3162
a(V\u55d1
I231
tp3163
a(V\u9776
I231
tp3164
a(V\u8881
I231
tp3165
a(V\u7bf1
I230
tp3166
a(V\u90b1
I229
tp3167
a(V\u988a
I228
tp3168
a(V\u9e20
I228
tp3169
a(V\u6512
I228
tp3170
a(V\u553e
I227
tp3171
a(V\u5b5c
I227
tp3172
a(V\u96c1
I227
tp3173
a(V\u6345
I227
tp3174
a(V\u558b
I227
tp3175
a(V\u6e89
I226
tp3176
a(V\u5195
I226
tp3177
a(V\u8fe5
I226
tp3178
a(V\u77aa
I225
tp3179
a(V\u5a34
I224
tp3180
a(V\u900d
I224
tp3181
a(V\u7fe9
I223
tp3182
a(V\u7316
I223
tp3183
a(V\u8042
I222
tp3184
a(V\u82df
I222
tp3185
a(V\u7a20
I222
tp3186
a(V\u7bd9
I221
tp3187
a(V\u7960
I221
tp3188
a(V\u6817
I221
tp3189
a(V\u7f44
I220
tp3190
a(V\u560e
I219
tp3191
a(V\u9a6d
I218
tp3192
a(V\u90b8
I217
tp3193
a(V\u76bf
I217
tp3194
a(V\u592d
I217
tp3195
a(V\u6ed4
I217
tp3196
a(V\u915a
I217
tp3197
a(V\u7efd
I217
tp3198
a(V\u54a7
I216
tp3199
a(V\u7766
I216
tp3200
a(V\u75ae
I216
tp3201
a(V\u7c9f
I216
tp3202
a(V\u95f0
I215
tp3203
a(V\u8717
I214
tp3204
a(V\u5b62
I214
tp3205
a(V\u6a3d
I214
tp3206
a(V\u75b5
I214
tp3207
a(V\u6e58
I214
tp3208
a(V\u710a
I213
tp3209
a(V\u7830
I212
tp3210
a(V\u74e3
I212
tp3211
a(V\u8e1d
I212
tp3212
a(V\u7fb9
I212
tp3213
a(V\u8de4
I212
tp3214
a(V\u8e44
I212
tp3215
a(V\u7357
I211
tp3216
a(V\u9511
I211
tp3217
a(V\u7119
I211
tp3218
a(V\u72d9
I210
tp3219
a(V\u94c2
I210
tp3220
a(V\u5b75
I209
tp3221
a(V\u82d4
I209
tp3222
a(V\u7f15
I209
tp3223
a(V\u602f
I209
tp3224
a(V\u62ed
I209
tp3225
a(V\u7d6e
I208
tp3226
a(V\u6c79
I208
tp3227
a(V\u859b
I208
tp3228
a(V\u8214
I207
tp3229
a(V\u63a3
I207
tp3230
a(V\u5a1f
I207
tp3231
a(V\u56f1
I207
tp3232
a(V\u8c24
I206
tp3233
a(V\u7984
I206
tp3234
a(V\u6714
I206
tp3235
a(V\u54d7
I205
tp3236
a(V\u9c7f
I204
tp3237
a(V\u63c9
I204
tp3238
a(V\u83b9
I204
tp3239
a(V\u53ed
I204
tp3240
a(V\u6a47
I203
tp3241
a(V\u8fbd
I203
tp3242
a(V\u67ff
I203
tp3243
a(V\u8202
I203
tp3244
a(V\u55fd
I203
tp3245
a(V\u4f0e
I202
tp3246
a(V\u7435
I201
tp3247
a(V\u7898
I201
tp3248
a(V\u7f79
I201
tp3249
a(V\u77a5
I201
tp3250
a(V\u6b86
I201
tp3251
a(V\u621b
I201
tp3252
a(V\u552c
I200
tp3253
a(V\u55e1
I199
tp3254
a(V\u6252
I199
tp3255
a(V\u71a0
I198
tp3256
a(V\u9c97
I198
tp3257
a(V\u64c2
I197
tp3258
a(V\u8bf6
I197
tp3259
a(V\u7ecc
I197
tp3260
a(V\u7459
I197
tp3261
a(V\u8f8d
I197
tp3262
a(V\u8dda
I196
tp3263
a(V\u8bfd
I196
tp3264
a(V\u6c50
I196
tp3265
a(V\u8e52
I196
tp3266
a(V\u5764
I196
tp3267
a(V\u8d6d
I196
tp3268
a(V\u5bd0
I196
tp3269
a(V\u66ae
I194
tp3270
a(V\u6995
I193
tp3271
a(V\u7a91
I192
tp3272
a(V\u7aff
I192
tp3273
a(V\u5bdd
I192
tp3274
a(V\u8424
I191
tp3275
a(V\u9f9b
I191
tp3276
a(V\u795f
I190
tp3277
a(V\u6829
I189
tp3278
a(V\u7426
I188
tp3279
a(V\u541d
I188
tp3280
a(V\u7519
I188
tp3281
a(V\u4f7c
I188
tp3282
a(V\u5e27
I187
tp3283
a(V\u835f
I187
tp3284
a(V\u655b
I185
tp3285
a(V\u75eb
I185
tp3286
a(V\u7980
I185
tp3287
a(V\u787c
I185
tp3288
a(V\u59d7
I185
tp3289
a(V\u9655
I184
tp3290
a(V\u8eac
I184
tp3291
a(V\u9975
I184
tp3292
a(V\u7436
I184
tp3293
a(V\u8611
I183
tp3294
a(V\u6e0d
I183
tp3295
a(V\u733e
I183
tp3296
a(V\u561f
I182
tp3297
a(V\u94ec
I182
tp3298
a(V\u60af
I181
tp3299
a(V\u6635
I181
tp3300
a(V\u6e44
I179
tp3301
a(V\u8fe6
I179
tp3302
a(V\u6b79
I179
tp3303
a(V\u5520
I179
tp3304
a(V\u8782
I178
tp3305
a(V\u4fd1
I178
tp3306
a(V\u8dcb
I178
tp3307
a(V\u7480
I178
tp3308
a(V\u4fcf
I178
tp3309
a(V\u7a96
I178
tp3310
a(V\u5773
I178
tp3311
a(V\u631d
I177
tp3312
a(V\u808b
I177
tp3313
a(V\u9525
I177
tp3314
a(V\u5636
I177
tp3315
a(V\u7eda
I177
tp3316
a(V\u8892
I176
tp3317
a(V\u5c27
I176
tp3318
a(V\u9753
I176
tp3319
a(V\u5c82
I176
tp3320
a(V\u5490
I175
tp3321
a(V\u65ed
I175
tp3322
a(V\u997a
I175
tp3323
a(V\u6292
I175
tp3324
a(V\u9885
I175
tp3325
a(V\u5a77
I174
tp3326
a(V\u60f6
I174
tp3327
a(V\u8695
I174
tp3328
a(V\u9165
I173
tp3329
a(V\u574d
I173
tp3330
a(V\u8734
I173
tp3331
a(V\u6e32
I173
tp3332
a(V\u66d9
I172
tp3333
a(V\u51a4
I172
tp3334
a(V\u7578
I172
tp3335
a(V\u9e66
I172
tp3336
a(V\u78fa
I172
tp3337
a(V\u5486
I172
tp3338
a(V\u77e2
I171
tp3339
a(V\u76cf
I170
tp3340
a(V\u873b
I169
tp3341
a(V\u8e6d
I169
tp3342
a(V\u6f8e
I169
tp3343
a(V\u8d58
I168
tp3344
a(V\u6868
I167
tp3345
a(V\u6d8e
I167
tp3346
a(V\u74a8
I166
tp3347
a(V\u556a
I166
tp3348
a(V\u71a8
I166
tp3349
a(V\u7f30
I166
tp3350
a(V\u8e35
I166
tp3351
a(V\u851a
I166
tp3352
a(V\u6d5a
I165
tp3353
a(V\u91ae
I165
tp3354
a(V\u853c
I165
tp3355
a(V\u64ac
I165
tp3356
a(V\u663c
I164
tp3357
a(V\u70d9
I163
tp3358
a(V\u901e
I163
tp3359
a(V\u96ef
I161
tp3360
a(V\u6886
I161
tp3361
a(V\u4f83
I161
tp3362
a(V\u973e
I160
tp3363
a(V\u667e
I160
tp3364
a(V\u7117
I160
tp3365
a(V\u9e49
I159
tp3366
a(V\u864f
I159
tp3367
a(V\u57a2
I159
tp3368
a(V\u61ca
I158
tp3369
a(V\u6866
I158
tp3370
a(V\u9074
I158
tp3371
a(V\u79fd
I157
tp3372
a(V\u8713
I157
tp3373
a(V\u5c90
I156
tp3374
a(V\u7476
I156
tp3375
a(V\u5d3d
I156
tp3376
a(V\u598d
I156
tp3377
a(V\u773a
I156
tp3378
a(V\u556c
I156
tp3379
a(V\u6850
I155
tp3380
a(V\u5fcf
I155
tp3381
a(V\u5c96
I155
tp3382
a(V\u6390
I153
tp3383
a(V\u7096
I153
tp3384
a(V\u77d7
I153
tp3385
a(V\u6cbd
I153
tp3386
a(V\u7fe1
I152
tp3387
a(V\u6020
I152
tp3388
a(V\u618b
I152
tp3389
a(V\u96cf
I151
tp3390
a(V\u625b
I151
tp3391
a(V\u7a9c
I151
tp3392
a(V\u7f2d
I151
tp3393
a(V\u598a
I151
tp3394
a(V\u94b5
I150
tp3395
a(V\u5431
I150
tp3396
a(V\u6518
I150
tp3397
a(V\u6b83
I150
tp3398
a(V\u5a20
I150
tp3399
a(V\u51c4
I150
tp3400
a(V\u62e7
I149
tp3401
a(V\u6f13
I148
tp3402
a(V\u78be
I148
tp3403
a(V\u5a76
I148
tp3404
a(V\u59e5
I148
tp3405
a(V\u895f
I148
tp3406
a(V\u5f6a
I147
tp3407
a(V\u7c07
I147
tp3408
a(V\u8df7
I147
tp3409
a(V\u544b
I146
tp3410
a(V\u8768
I146
tp3411
a(V\u6dcc
I146
tp3412
a(V\u631f
I146
tp3413
a(V\u6f29
I145
tp3414
a(V\u5352
I145
tp3415
a(V\u7cc5
I144
tp3416
a(V\u84c9
I144
tp3417
a(V\u7109
I144
tp3418
a(V\u97ec
I144
tp3419
a(V\u87c0
I143
tp3420
a(V\u5ac2
I143
tp3421
a(V\u819b
I143
tp3422
a(V\u5608
I143
tp3423
a(V\u8426
I143
tp3424
a(V\u58d1
I142
tp3425
a(V\u5c94
I142
tp3426
a(V\u527d
I142
tp3427
a(V\u874e
I142
tp3428
a(V\u8d43
I142
tp3429
a(V\u88f4
I142
tp3430
a(V\u60ec
I141
tp3431
a(V\u7f94
I141
tp3432
a(V\u78d5
I141
tp3433
a(V\u6e0e
I141
tp3434
a(V\u5e11
I141
tp3435
a(V\u8171
I140
tp3436
a(V\u9602
I140
tp3437
a(V\u75ca
I139
tp3438
a(V\u998f
I139
tp3439
a(V\u7f9a
I139
tp3440
a(V\u6808
I139
tp3441
a(V\u4f8f
I139
tp3442
a(V\u5429
I138
tp3443
a(V\u7be1
I138
tp3444
a(V\u54e9
I138
tp3445
a(V\u6a90
I138
tp3446
a(V\u58a9
I138
tp3447
a(V\u62ee
I138
tp3448
a(V\u5e37
I138
tp3449
a(V\u8936
I137
tp3450
a(V\u5288
I137
tp3451
a(V\u652b
I137
tp3452
a(V\u5180
I136
tp3453
a(V\u873f
I136
tp3454
a(V\u8fab
I136
tp3455
a(V\u5830
I135
tp3456
a(V\u7a3c
I135
tp3457
a(V\u88b1
I135
tp3458
a(V\u6d4a
I135
tp3459
a(V\u9502
I135
tp3460
a(V\u8712
I135
tp3461
a(V\u94b3
I135
tp3462
a(V\u956f
I134
tp3463
a(V\u5a25
I133
tp3464
a(V\u6e43
I133
tp3465
a(V\u776c
I133
tp3466
a(V\u9c91
I133
tp3467
a(V\u829c
I133
tp3468
a(V\u65a1
I133
tp3469
a(V\u946b
I132
tp3470
a(V\u82b8
I132
tp3471
a(V\u78ca
I132
tp3472
a(V\u7638
I132
tp3473
a(V\u6059
I132
tp3474
a(V\u76f9
I132
tp3475
a(V\u72b8
I132
tp3476
a(V\u63ea
I132
tp3477
a(V\u72d2
I131
tp3478
a(V\u871a
I131
tp3479
a(V\u66e6
I131
tp3480
a(V\u4e7e
I130
tp3481
a(V\u6ba1
I130
tp3482
a(V\u5a9b
I129
tp3483
a(V\u9893
I129
tp3484
a(V\u6f47
I129
tp3485
a(V\u502a
I129
tp3486
a(V\u7bb4
I129
tp3487
a(V\u6f88
I128
tp3488
a(V\u5e4c
I128
tp3489
a(V\u8be7
I128
tp3490
a(V\u5bc7
I128
tp3491
a(V\u61ac
I128
tp3492
a(V\u8f0b
I128
tp3493
a(V\u61a7
I127
tp3494
a(V\u5323
I127
tp3495
a(V\u5228
I127
tp3496
a(V\u604d
I127
tp3497
a(V\u5f5d
I127
tp3498
a(V\u5bee
I127
tp3499
a(V\u9cde
I126
tp3500
a(V\u74a7
I126
tp3501
a(V\u9ccc
I126
tp3502
a(V\u83ba
I126
tp3503
a(V\u8ff8
I126
tp3504
a(V\u832c
I125
tp3505
a(V\u60ad
I125
tp3506
a(V\u9e25
I125
tp3507
a(V\u9ccd
I125
tp3508
a(V\u7076
I124
tp3509
a(V\u5162
I124
tp3510
a(V\u8749
I124
tp3511
a(V\u54bb
I124
tp3512
a(V\u8d61
I124
tp3513
a(V\u8006
I124
tp3514
a(V\u8912
I124
tp3515
a(V\u4e10
I124
tp3516
a(V\u8d48
I124
tp3517
a(V\u7827
I124
tp3518
a(V\u9e35
I124
tp3519
a(V\u692d
I123
tp3520
a(V\u6be1
I123
tp3521
a(V\u8bdf
I123
tp3522
a(V\u5a13
I123
tp3523
a(V\u8237
I123
tp3524
a(V\u9cd7
I123
tp3525
a(V\u89ca
I123
tp3526
a(V\u8c1a
I123
tp3527
a(V\u5543
I122
tp3528
a(V\u9a79
I122
tp3529
a(V\u6893
I122
tp3530
a(V\u54d4
I122
tp3531
a(V\u8be9
I122
tp3532
a(V\u7f04
I122
tp3533
a(V\u55e4
I121
tp3534
a(V\u8517
I121
tp3535
a(V\u5466
I121
tp3536
a(V\u53ae
I121
tp3537
a(V\u701a
I121
tp3538
a(V\u5944
I121
tp3539
a(V\u53fd
I121
tp3540
a(V\u53a9
I121
tp3541
a(V\u89ce
I121
tp3542
a(V\u58d5
I120
tp3543
a(V\u80f1
I120
tp3544
a(V\u8e4a
I120
tp3545
a(V\u9169
I120
tp3546
a(V\u8c19
I120
tp3547
a(V\u5f1b
I120
tp3548
a(V\u6115
I120
tp3549
a(V\u568f
I120
tp3550
a(V\u6db8
I120
tp3551
a(V\u73b7
I119
tp3552
a(V\u8110
I119
tp3553
a(V\u66a7
I119
tp3554
a(V\u9e6d
I119
tp3555
a(V\u74e2
I119
tp3556
a(V\u85e9
I119
tp3557
a(V\u5b7d
I118
tp3558
a(V\u8327
I118
tp3559
a(V\u6897
I118
tp3560
a(V\u8737
I118
tp3561
a(V\u5189
I118
tp3562
a(V\u9713
I118
tp3563
a(V\u557c
I118
tp3564
a(V\u761f
I118
tp3565
a(V\u659f
I117
tp3566
a(V\u5ab3
I117
tp3567
a(V\u7737
I117
tp3568
a(V\u75a1
I117
tp3569
a(V\u86a4
I117
tp3570
a(V\u7f2e
I117
tp3571
a(V\u55f7
I116
tp3572
a(V\u70ec
I116
tp3573
a(V\u620a
I116
tp3574
a(V\u6da7
I116
tp3575
a(V\u853b
I116
tp3576
a(V\u73d0
I116
tp3577
a(V\u55b1
I116
tp3578
a(V\u6789
I115
tp3579
a(V\u4fac
I115
tp3580
a(V\u9b47
I115
tp3581
a(V\u9530
I115
tp3582
a(V\u8c82
I114
tp3583
a(V\u6c26
I114
tp3584
a(V\u8bcb
I114
tp3585
a(V\u9102
I114
tp3586
a(V\u956d
I114
tp3587
a(V\u8559
I113
tp3588
a(V\u7f0e
I113
tp3589
a(V\u6a80
I113
tp3590
a(V\u5567
I113
tp3591
a(V\u5f64
I113
tp3592
a(V\u5527
I113
tp3593
a(V\u63b0
I113
tp3594
a(V\u6002
I112
tp3595
a(V\u6342
I112
tp3596
a(V\u6d93
I112
tp3597
a(V\u4fa5
I112
tp3598
a(V\u9f3e
I111
tp3599
a(V\u5c79
I111
tp3600
a(V\u83c1
I111
tp3601
a(V\u82ae
I111
tp3602
a(V\u8338
I111
tp3603
a(V\u949b
I111
tp3604
a(V\u87d1
I111
tp3605
a(V\u563b
I111
tp3606
a(V\u7889
I110
tp3607
a(V\u909d
I110
tp3608
a(V\u7b94
I110
tp3609
a(V\u58f9
I110
tp3610
a(V\u631b
I110
tp3611
a(V\u83e9
I110
tp3612
a(V\u8ba5
I109
tp3613
a(V\u7325
I109
tp3614
a(V\u960e
I109
tp3615
a(V\u752b
I109
tp3616
a(V\u86ce
I109
tp3617
a(V\u7a79
I108
tp3618
a(V\u6d3c
I108
tp3619
a(V\u6c93
I108
tp3620
a(V\u8638
I108
tp3621
a(V\u9e43
I108
tp3622
a(V\u9685
I108
tp3623
a(V\u865e
I107
tp3624
a(V\u816e
I107
tp3625
a(V\u826e
I107
tp3626
a(V\u8c4c
I107
tp3627
a(V\u57e0
I106
tp3628
a(V\u8e6c
I106
tp3629
a(V\u86b1
I106
tp3630
a(V\u9e33
I106
tp3631
a(V\u7b77
I106
tp3632
a(V\u8f98
I106
tp3633
a(V\u8722
I106
tp3634
a(V\u8f76
I106
tp3635
a(V\u8c1b
I105
tp3636
a(V\u77a0
I105
tp3637
a(V\u9b23
I105
tp3638
a(V\u6413
I105
tp3639
a(V\u8715
I105
tp3640
a(V\u4ffe
I105
tp3641
a(V\u5b70
I105
tp3642
a(V\u7e82
I105
tp3643
a(V\u4fe8
I104
tp3644
a(V\u90b9
I104
tp3645
a(V\u9e4a
I104
tp3646
a(V\u4fde
I104
tp3647
a(V\u60ee
I104
tp3648
a(V\u809b
I104
tp3649
a(V\u545b
I103
tp3650
a(V\u54a9
I103
tp3651
a(V\u86e4
I103
tp3652
a(V\u6410
I103
tp3653
a(V\u66f0
I102
tp3654
a(V\u9541
I102
tp3655
a(V\u54ab
I102
tp3656
a(V\u75c9
I102
tp3657
a(V\u606a
I102
tp3658
a(V\u7315
I102
tp3659
a(V\u5a04
I102
tp3660
a(V\u97a0
I102
tp3661
a(V\u81c6
I102
tp3662
a(V\u6249
I102
tp3663
a(V\u762a
I101
tp3664
a(V\u6402
I101
tp3665
a(V\u75d8
I101
tp3666
a(V\u7405
I101
tp3667
a(V\u8153
I101
tp3668
a(V\u5121
I100
tp3669
a(V\u8be3
I100
tp3670
a(V\u5a7f
I100
tp3671
a(V\u8dc6
I100
tp3672
a(V\u9ab0
I99
tp3673
a(V\u94a7
I99
tp3674
a(V\u6eb4
I99
tp3675
a(V\u7600
I99
tp3676
a(V\u62c2
I98
tp3677
a(V\u568e
I98
tp3678
a(V\u8fc2
I98
tp3679
a(V\u6845
I98
tp3680
a(V\u9e92
I97
tp3681
a(V\u9573
I97
tp3682
a(V\u8ddb
I97
tp3683
a(V\u68a7
I97
tp3684
a(V\u837c
I97
tp3685
a(V\u7f42
I97
tp3686
a(V\u7eab
I96
tp3687
a(V\u7f9f
I96
tp3688
a(V\u8baa
I96
tp3689
a(V\u82b9
I96
tp3690
a(V\u8788
I96
tp3691
a(V\u9497
I96
tp3692
a(V\u549a
I96
tp3693
a(V\u6b89
I95
tp3694
a(V\u9051
I95
tp3695
a(V\u70e9
I95
tp3696
a(V\u5080
I95
tp3697
a(V\u5ff1
I95
tp3698
a(V\u81fb
I95
tp3699
a(V\u7eee
I95
tp3700
a(V\u66f3
I94
tp3701
a(V\u8309
I94
tp3702
a(V\u556e
I94
tp3703
a(V\u9e2f
I94
tp3704
a(V\u8bb9
I94
tp3705
a(V\u88d8
I94
tp3706
a(V\u68a2
I94
tp3707
a(V\u565c
I94
tp3708
a(V\u94ce
I94
tp3709
a(V\u7bab
I93
tp3710
a(V\u91ba
I93
tp3711
a(V\u6400
I93
tp3712
a(V\u61cb
I93
tp3713
a(V\u9082
I92
tp3714
a(V\u87cb
I92
tp3715
a(V\u80bd
I92
tp3716
a(V\u51bc
I92
tp3717
a(V\u60ed
I92
tp3718
a(V\u9050
I92
tp3719
a(V\u6960
I92
tp3720
a(V\u94e2
I91
tp3721
a(V\u9005
I91
tp3722
a(V\u55b3
I91
tp3723
a(V\u561e
I91
tp3724
a(V\u6fe0
I91
tp3725
a(V\u9cd5
I91
tp3726
a(V\u835a
I91
tp3727
a(V\u60fa
I91
tp3728
a(V\u8385
I91
tp3729
a(V\u87d2
I91
tp3730
a(V\u8700
I90
tp3731
a(V\u86c0
I90
tp3732
a(V\u69ff
I90
tp3733
a(V\u89d1
I90
tp3734
a(V\u82f7
I90
tp3735
a(V\u814b
I90
tp3736
a(V\u555c
I90
tp3737
a(V\u4ea2
I90
tp3738
a(V\u6726
I89
tp3739
a(V\u6a0a
I89
tp3740
a(V\u547b
I89
tp3741
a(V\u5600
I89
tp3742
a(V\u607f
I89
tp3743
a(V\u76e5
I88
tp3744
a(V\u7f5f
I88
tp3745
a(V\u67b7
I88
tp3746
a(V\u7c38
I88
tp3747
a(V\u748b
I88
tp3748
a(V\u8f97
I88
tp3749
a(V\u8e42
I87
tp3750
a(V\u7eb6
I87
tp3751
a(V\u7eef
I87
tp3752
a(V\u80e7
I87
tp3753
a(V\u626a
I87
tp3754
a(V\u53a5
I87
tp3755
a(V\u6593
I87
tp3756
a(V\u7391
I86
tp3757
a(V\u8783
I86
tp3758
a(V\u5b40
I86
tp3759
a(V\u7b19
I86
tp3760
a(V\u91dc
I86
tp3761
a(V\u8c49
I85
tp3762
a(V\u6f8d
I85
tp3763
a(V\u949a
I85
tp3764
a(V\u6f66
I85
tp3765
a(V\u8e8f
I85
tp3766
a(V\u78d0
I85
tp3767
a(V\u5777
I85
tp3768
a(V\u81ba
I85
tp3769
a(V\u67da
I85
tp3770
a(V\u60cb
I85
tp3771
a(V\u5494
I84
tp3772
a(V\u64d2
I84
tp3773
a(V\u6df3
I84
tp3774
a(V\u6619
I84
tp3775
a(V\u7cc9
I84
tp3776
a(V\u828b
I84
tp3777
a(V\u6ca7
I84
tp3778
a(V\u6f62
I84
tp3779
a(V\u989a
I84
tp3780
a(V\u6a1f
I84
tp3781
a(V\u7f54
I83
tp3782
a(V\u7785
I83
tp3783
a(V\u752d
I83
tp3784
a(V\u61ff
I83
tp3785
a(V\u5ce6
I83
tp3786
a(V\u5768
I83
tp3787
a(V\u7409
I83
tp3788
a(V\u7599
I83
tp3789
a(V\u55b5
I83
tp3790
a(V\u62f4
I82
tp3791
a(V\u7f07
I82
tp3792
a(V\u9611
I82
tp3793
a(V\u810d
I82
tp3794
a(V\u85d0
I82
tp3795
a(V\u67ad
I82
tp3796
a(V\u7620
I82
tp3797
a(V\u4fea
I82
tp3798
a(V\u6b93
I82
tp3799
a(V\u8bab
I82
tp3800
a(V\u86c6
I82
tp3801
a(V\u88a4
I82
tp3802
a(V\u607a
I81
tp3803
a(V\u75f0
I81
tp3804
a(V\u86fe
I81
tp3805
a(V\u8707
I81
tp3806
a(V\u631e
I80
tp3807
a(V\u5671
I80
tp3808
a(V\u9a8b
I80
tp3809
a(V\u7629
I80
tp3810
a(V\u5bf0
I80
tp3811
a(V\u7337
I80
tp3812
a(V\u88f3
I80
tp3813
a(V\u55e6
I80
tp3814
a(V\u877e
I80
tp3815
a(V\u7281
I79
tp3816
a(V\u7940
I79
tp3817
a(V\u948a
I79
tp3818
a(V\u6c8c
I79
tp3819
a(V\u606c
I79
tp3820
a(V\u5f77
I79
tp3821
a(V\u8e1e
I79
tp3822
a(V\u6bd3
I79
tp3823
a(V\u672d
I78
tp3824
a(V\u8914
I78
tp3825
a(V\u7b06
I78
tp3826
a(V\u8e69
I78
tp3827
a(V\u55dd
I78
tp3828
a(V\u7887
I78
tp3829
a(V\u9ab7
I78
tp3830
a(V\u621f
I78
tp3831
a(V\u741b
I78
tp3832
a(V\u846b
I77
tp3833
a(V\u81c3
I77
tp3834
a(V\u709c
I77
tp3835
a(V\u5506
I77
tp3836
a(V\u7693
I77
tp3837
a(V\u8757
I77
tp3838
a(V\u7c41
I77
tp3839
a(V\u5fff
I76
tp3840
a(V\u8c1f
I76
tp3841
a(V\u8e87
I76
tp3842
a(V\u73ae
I76
tp3843
a(V\u9ebe
I76
tp3844
a(V\u5ae6
I76
tp3845
a(V\u533e
I76
tp3846
a(V\u86ca
I76
tp3847
a(V\u6cd3
I76
tp3848
a(V\u8e0c
I75
tp3849
a(V\u6d9f
I75
tp3850
a(V\u96f3
I75
tp3851
a(V\u7736
I75
tp3852
a(V\u6123
I75
tp3853
a(V\u8f67
I75
tp3854
a(V\u7ff1
I75
tp3855
a(V\u905b
I75
tp3856
a(V\u9704
I74
tp3857
a(V\u77b3
I74
tp3858
a(V\u595a
I74
tp3859
a(V\u5fd2
I74
tp3860
a(V\u675e
I74
tp3861
a(V\u7078
I74
tp3862
a(V\u6cde
I74
tp3863
a(V\u9739
I74
tp3864
a(V\u8113
I74
tp3865
a(V\u9cc3
I73
tp3866
a(V\u9ac5
I73
tp3867
a(V\u5420
I73
tp3868
a(V\u9091
I73
tp3869
a(V\u8bd9
I73
tp3870
a(V\u8339
I73
tp3871
a(V\u7bdd
I72
tp3872
a(V\u62ce
I72
tp3873
a(V\u8bf2
I72
tp3874
a(V\u7252
I72
tp3875
a(V\u64a9
I72
tp3876
a(V\u5e90
I71
tp3877
a(V\u9773
I71
tp3878
a(V\u908b
I71
tp3879
a(V\u67d1
I71
tp3880
a(V\u77e3
I71
tp3881
a(V\u5055
I71
tp3882
a(V\u8e4b
I71
tp3883
a(V\u7b3a
I71
tp3884
a(V\u60b8
I71
tp3885
a(V\u7708
I71
tp3886
a(V\u797a
I70
tp3887
a(V\u951f
I70
tp3888
a(V\u5f95
I70
tp3889
a(V\u778c
I70
tp3890
a(V\u59b3
I70
tp3891
a(V\u731d
I70
tp3892
a(V\u54dd
I70
tp3893
a(V\u7aa6
I70
tp3894
a(V\u988c
I70
tp3895
a(V\u94a8
I70
tp3896
a(V\u69bb
I69
tp3897
a(V\u69b7
I69
tp3898
a(V\u7ce0
I69
tp3899
a(V\u8d3b
I69
tp3900
a(V\u6b7c
I69
tp3901
a(V\u87b3
I69
tp3902
a(V\u57a6
I69
tp3903
a(V\u5201
I69
tp3904
a(V\u7f1b
I69
tp3905
a(V\u90dd
I69
tp3906
a(V\u8bc3
I68
tp3907
a(V\u6954
I68
tp3908
a(V\u54c9
I68
tp3909
a(V\u85d3
I68
tp3910
a(V\u5471
I68
tp3911
a(V\u8301
I68
tp3912
a(V\u94db
I68
tp3913
a(V\u712f
I68
tp3914
a(V\u94c9
I68
tp3915
a(V\u6615
I68
tp3916
a(V\u8e31
I68
tp3917
a(V\u6841
I68
tp3918
a(V\u4ffa
I68
tp3919
a(V\u8e39
I68
tp3920
a(V\u6f31
I67
tp3921
a(V\u6c81
I67
tp3922
a(V\u9608
I67
tp3923
a(V\u7490
I67
tp3924
a(V\u55d2
I67
tp3925
a(V\u79e4
I67
tp3926
a(V\u9609
I67
tp3927
a(V\u8df6
I67
tp3928
a(V\u7396
I67
tp3929
a(V\u91c9
I67
tp3930
a(V\u9f2c
I67
tp3931
a(V\u753a
I67
tp3932
a(V\u7751
I67
tp3933
a(V\u6f2a
I66
tp3934
a(V\u9f8a
I66
tp3935
a(V\u6063
I66
tp3936
a(V\u8e09
I66
tp3937
a(V\u8dc4
I66
tp3938
a(V\u8ba3
I66
tp3939
a(V\u6849
I66
tp3940
a(V\u9522
I66
tp3941
a(V\u60da
I66
tp3942
a(V\u9981
I66
tp3943
a(V\u5c9a
I66
tp3944
a(V\u4fda
I65
tp3945
a(V\u9f8c
I65
tp3946
a(V\u5014
I65
tp3947
a(V\u9eb8
I64
tp3948
a(V\u8c27
I64
tp3949
a(V\u70ca
I64
tp3950
a(V\u73d1
I64
tp3951
a(V\u6479
I64
tp3952
a(V\u6525
I64
tp3953
a(V\u5803
I64
tp3954
a(V\u67b1
I64
tp3955
a(V\u542e
I64
tp3956
a(V\u9535
I64
tp3957
a(V\u57a3
I63
tp3958
a(V\u5b6a
I63
tp3959
a(V\u6e6e
I63
tp3960
a(V\u7525
I63
tp3961
a(V\u812f
I63
tp3962
a(V\u51cb
I63
tp3963
a(V\u6f09
I63
tp3964
a(V\u7afa
I63
tp3965
a(V\u7f1c
I63
tp3966
a(V\u7487
I63
tp3967
a(V\u8731
I63
tp3968
a(V\u5f29
I62
tp3969
a(V\u5dcd
I62
tp3970
a(V\u94b4
I62
tp3971
a(V\u642a
I62
tp3972
a(V\u98da
I62
tp3973
a(V\u8e74
I62
tp3974
a(V\u8d5d
I62
tp3975
a(V\u7b4f
I62
tp3976
a(V\u8f84
I62
tp3977
a(V\u7fdf
I62
tp3978
a(V\u69cc
I62
tp3979
a(V\u73c8
I62
tp3980
a(V\u7b50
I61
tp3981
a(V\u9041
I61
tp3982
a(V\u80ea
I61
tp3983
a(V\u54d2
I61
tp3984
a(V\u67a3
I61
tp3985
a(V\u9083
I61
tp3986
a(V\u9062
I61
tp3987
a(V\u6ec7
I61
tp3988
a(V\u6ea5
I61
tp3989
a(V\u9992
I60
tp3990
a(V\u9aa1
I60
tp3991
a(V\u60f4
I60
tp3992
a(V\u6d19
I60
tp3993
a(V\u4e98
I60
tp3994
a(V\u772f
I60
tp3995
a(V\u9c72
I60
tp3996
a(V\u6e4d
I60
tp3997
a(V\u6d31
I59
tp3998
a(V\u9af9
I59
tp3999
a(V\u7738
I59
tp4000
a(V\u8c15
I59
tp4001
a(V\u72c8
I59
tp4002
a(V\u7bea
I59
tp4003
a(V\u7691
I58
tp4004
a(V\u6e1d
I58
tp4005
a(V\u63ae
I58
tp4006
a(V\u74ee
I58
tp4007
a(V\u6382
I58
tp4008
a(V\u6986
I58
tp4009
a(V\u5693
I58
tp4010
a(V\u5fd1
I57
tp4011
a(V\u64b7
I57
tp4012
a(V\u6822
I57
tp4013
a(V\u97f6
I57
tp4014
a(V\u8446
I57
tp4015
a(V\u7b71
I57
tp4016
a(V\u7cb1
I57
tp4017
a(V\u950f
I57
tp4018
a(V\u8882
I56
tp4019
a(V\u59b2
I56
tp4020
a(V\u9e9d
I56
tp4021
a(V\u96bd
I56
tp4022
a(V\u9cad
I56
tp4023
a(V\u50ed
I56
tp4024
a(V\u9539
I56
tp4025
a(V\u5fd0
I56
tp4026
a(V\u4fd0
I56
tp4027
a(V\u52b5
I56
tp4028
a(V\u8317
I55
tp4029
a(V\u7c91
I55
tp4030
a(V\u84d3
I55
tp4031
a(V\u6043
I55
tp4032
a(V\u821c
I55
tp4033
a(V\u777d
I55
tp4034
a(V\u6e25
I55
tp4035
a(V\u6dee
I55
tp4036
a(V\u9f88
I55
tp4037
a(V\u8703
I55
tp4038
a(V\u77fd
I55
tp4039
a(V\u5511
I55
tp4040
a(V\u5315
I55
tp4041
a(V\u51db
I55
tp4042
a(V\u60e6
I55
tp4043
a(V\u728a
I55
tp4044
a(V\u8e76
I55
tp4045
a(V\u62a0
I54
tp4046
a(V\u9e5c
I54
tp4047
a(V\u6854
I54
tp4048
a(V\u61a8
I54
tp4049
a(V\u80eb
I54
tp4050
a(V\u4f6f
I54
tp4051
a(V\u9cb6
I54
tp4052
a(V\u6e24
I54
tp4053
a(V\u75b1
I54
tp4054
a(V\u4f09
I54
tp4055
a(V\u5501
I54
tp4056
a(V\u972d
I54
tp4057
a(V\u759d
I54
tp4058
a(V\u6448
I53
tp4059
a(V\u8151
I53
tp4060
a(V\u53fc
I53
tp4061
a(V\u94e7
I53
tp4062
a(V\u8334
I53
tp4063
a(V\u634e
I53
tp4064
a(V\u9f39
I53
tp4065
a(V\u8fe9
I53
tp4066
a(V\u8913
I53
tp4067
a(V\u70af
I52
tp4068
a(V\u5544
I52
tp4069
a(V\u7947
I52
tp4070
a(V\u914a
I52
tp4071
a(V\u62d7
I52
tp4072
a(V\u96cd
I52
tp4073
a(V\u8c29
I52
tp4074
a(V\u8026
I52
tp4075
a(V\u81fc
I52
tp4076
a(V\u82c7
I51
tp4077
a(V\u4f5a
I51
tp4078
a(V\u8386
I51
tp4079
a(V\u4ee8
I51
tp4080
a(V\u6f7a
I51
tp4081
a(V\u8018
I51
tp4082
a(V\u8146
I51
tp4083
a(V\u6fef
I51
tp4084
a(V\u9e8b
I51
tp4085
a(V\u5f0b
I51
tp4086
a(V\u817c
I51
tp4087
a(V\u69ad
I51
tp4088
a(V\u557b
I51
tp4089
a(V\u9edc
I51
tp4090
a(V\u56d4
I51
tp4091
a(V\u5942
I51
tp4092
a(V\u72b7
I50
tp4093
a(V\u86ac
I50
tp4094
a(V\u9555
I50
tp4095
a(V\u737e
I50
tp4096
a(V\u745b
I50
tp4097
a(V\u704f
I50
tp4098
a(V\u86df
I50
tp4099
a(V\u5140
I50
tp4100
a(V\u7cdc
I50
tp4101
a(V\u5e1a
I50
tp4102
a(V\u5623
I50
tp4103
a(V\u8a3c
I50
tp4104
a(V\u5241
I50
tp4105
a(V\u504e
I50
tp4106
a(V\u75e2
I50
tp4107
a(V\u86f0
I50
tp4108
a(V\u9798
I50
tp4109
a(V\u708a
I50
tp4110
a(V\u504c
I49
tp4111
a(V\u5b95
I49
tp4112
a(V\u732c
I49
tp4113
a(V\u89d0
I49
tp4114
a(V\u781d
I49
tp4115
a(V\u6194
I49
tp4116
a(V\u94e8
I49
tp4117
a(V\u8753
I49
tp4118
a(V\u68e3
I49
tp4119
a(V\u9cb7
I49
tp4120
a(V\u61f5
I49
tp4121
a(V\u7abf
I48
tp4122
a(V\u7b8d
I48
tp4123
a(V\u5156
I48
tp4124
a(V\u5522
I48
tp4125
a(V\u6775
I48
tp4126
a(V\u8c11
I48
tp4127
a(V\u542d
I48
tp4128
a(V\u757f
I48
tp4129
a(V\u60b4
I48
tp4130
a(V\u7b08
I48
tp4131
a(V\u7941
I48
tp4132
a(V\u5e9a
I48
tp4133
a(V\u5a3c
I47
tp4134
a(V\u8200
I47
tp4135
a(V\u5421
I47
tp4136
a(V\u645e
I47
tp4137
a(V\u5704
I47
tp4138
a(V\u749e
I47
tp4139
a(V\u5478
I47
tp4140
a(V\u564e
I47
tp4141
a(V\u8bec
I47
tp4142
a(V\u86de
I46
tp4143
a(V\u5eb6
I46
tp4144
a(V\u82de
I46
tp4145
a(V\u7bc6
I46
tp4146
a(V\u5bc5
I46
tp4147
a(V\u75a3
I46
tp4148
a(V\u695e
I46
tp4149
a(V\u587e
I46
tp4150
a(V\u53e9
I46
tp4151
a(V\u82e3
I46
tp4152
a(V\u86aa
I46
tp4153
a(V\u87fe
I46
tp4154
a(V\u56f9
I46
tp4155
a(V\u527f
I46
tp4156
a(V\u8ba7
I46
tp4157
a(V\u88c6
I46
tp4158
a(V\u64e2
I46
tp4159
a(V\u6175
I45
tp4160
a(V\u5f89
I45
tp4161
a(V\u5f9c
I45
tp4162
a(V\u989e
I45
tp4163
a(V\u779f
I45
tp4164
a(V\u7ead
I45
tp4165
a(V\u6d9d
I45
tp4166
a(V\u82b7
I45
tp4167
a(V\u80e5
I45
tp4168
a(V\u90ac
I44
tp4169
a(V\u6853
I44
tp4170
a(V\u6421
I44
tp4171
a(V\u77fe
I44
tp4172
a(V\u64b5
I44
tp4173
a(V\u8bd8
I44
tp4174
a(V\u9563
I44
tp4175
a(V\u8216
I44
tp4176
a(V\u9163
I44
tp4177
a(V\u6bfd
I44
tp4178
a(V\u874c
I44
tp4179
a(V\u9acb
I43
tp4180
a(V\u9068
I43
tp4181
a(V\u7b0f
I43
tp4182
a(V\u52be
I43
tp4183
a(V\u5b56
I43
tp4184
a(V\u73b3
I43
tp4185
a(V\u620e
I43
tp4186
a(V\u94ff
I43
tp4187
a(V\u5ad6
I43
tp4188
a(V\u7cd7
I43
tp4189
a(V\u4faa
I43
tp4190
a(V\u5e3c
I42
tp4191
a(V\u9a7f
I42
tp4192
a(V\u8473
I42
tp4193
a(V\u8e7f
I42
tp4194
a(V\u5df3
I42
tp4195
a(V\u9532
I42
tp4196
a(V\u664f
I42
tp4197
a(V\u919a
I42
tp4198
a(V\u7688
I42
tp4199
a(V\u970e
I42
tp4200
a(V\u9c88
I42
tp4201
a(V\u576f
I42
tp4202
a(V\u684e
I42
tp4203
a(V\u55e3
I42
tp4204
a(V\u6c55
I42
tp4205
a(V\u75de
I42
tp4206
a(V\u80ed
I41
tp4207
a(V\u9ccf
I41
tp4208
a(V\u6e2d
I41
tp4209
a(V\u7957
I41
tp4210
a(V\u699b
I41
tp4211
a(V\u8d4a
I41
tp4212
a(V\u870d
I41
tp4213
a(V\u5657
I41
tp4214
a(V\u8537
I41
tp4215
a(V\u54c6
I41
tp4216
a(V\u868c
I41
tp4217
a(V\u688f
I41
tp4218
a(V\u7a14
I41
tp4219
a(V\u56e7
I41
tp4220
a(V\u5ae3
I41
tp4221
a(V\u6ed3
I41
tp4222
a(V\u78b4
I41
tp4223
a(V\u71ce
I40
tp4224
a(V\u53fb
I40
tp4225
a(V\u8c00
I40
tp4226
a(V\u95fd
I40
tp4227
a(V\u9e6b
I40
tp4228
a(V\u520b
I40
tp4229
a(V\u562d
I40
tp4230
a(V\u75e3
I40
tp4231
a(V\u536f
I40
tp4232
a(V\u970f
I40
tp4233
a(V\u5eb5
I40
tp4234
a(V\u9616
I40
tp4235
a(V\u8d73
I39
tp4236
a(V\u7663
I39
tp4237
a(V\u8158
I39
tp4238
a(V\u75ff
I39
tp4239
a(V\u8859
I39
tp4240
a(V\u58ec
I39
tp4241
a(V\u7428
I39
tp4242
a(V\u54fd
I39
tp4243
a(V\u87e0
I39
tp4244
a(V\u5cac
I39
tp4245
a(V\u6441
I39
tp4246
a(V\u6482
I39
tp4247
a(V\u70fd
I39
tp4248
a(V\u567c
I39
tp4249
a(V\u7ab0
I39
tp4250
a(V\u5cb1
I39
tp4251
a(V\u94f0
I39
tp4252
a(V\u623e
I39
tp4253
a(V\u88f1
I38
tp4254
a(V\u4ff3
I38
tp4255
a(V\u99a5
I38
tp4256
a(V\u998a
I38
tp4257
a(V\u7425
I38
tp4258
a(V\u7f8c
I38
tp4259
a(V\u79ba
I38
tp4260
a(V\u8dfa
I38
tp4261
a(V\u9e6c
I38
tp4262
a(V\u9a9b
I38
tp4263
a(V\u6e4e
I38
tp4264
a(V\u4f70
I38
tp4265
a(V\u5537
I38
tp4266
a(V\u8944
I38
tp4267
a(V\u9131
I38
tp4268
a(V\u8941
I37
tp4269
a(V\u94bc
I37
tp4270
a(V\u8e51
I37
tp4271
a(V\u5106
I37
tp4272
a(V\u5b7a
I37
tp4273
a(V\u5fb3
I37
tp4274
a(V\u77dc
I37
tp4275
a(V\u5b51
I37
tp4276
a(V\u82dc
I37
tp4277
a(V\u62c8
I37
tp4278
a(V\u66b9
I37
tp4279
a(V\u5d99
I37
tp4280
a(V\u84ff
I37
tp4281
a(V\u551b
I37
tp4282
a(V\u8925
I37
tp4283
a(V\u8398
I37
tp4284
a(V\u8bb7
I37
tp4285
a(V\u7c2a
I36
tp4286
a(V\u9e73
I36
tp4287
a(V\u84df
I36
tp4288
a(V\u8765
I36
tp4289
a(V\u8ba6
I36
tp4290
a(V\u8e7c
I36
tp4291
a(V\u8543
I36
tp4292
a(V\u57a9
I36
tp4293
a(V\u5ccb
I36
tp4294
a(V\u94ef
I36
tp4295
a(V\u92ae
I36
tp4296
a(V\u7942
I36
tp4297
a(V\u5fd6
I36
tp4298
a(V\u954c
I36
tp4299
a(V\u6f3e
I36
tp4300
a(V\u9edd
I36
tp4301
a(V\u63b8
I36
tp4302
a(V\u891b
I35
tp4303
a(V\u96bc
I35
tp4304
a(V\u73c2
I35
tp4305
a(V\u8568
I35
tp4306
a(V\u94b0
I35
tp4307
a(V\u5e54
I35
tp4308
a(V\u90a2
I35
tp4309
a(V\u75e4
I35
tp4310
a(V\u60d8
I35
tp4311
a(V\u5676
I35
tp4312
a(V\u55ec
I35
tp4313
a(V\u98a7
I35
tp4314
a(V\u8902
I35
tp4315
a(V\u89a7
I35
tp4316
a(V\u55d6
I35
tp4317
a(V\u87c6
I35
tp4318
a(V\u783a
I35
tp4319
a(V\u94c6
I35
tp4320
a(V\u8a8a
I34
tp4321
a(V\u6bc2
I34
tp4322
a(V\u63b3
I34
tp4323
a(V\u9504
I34
tp4324
a(V\u8364
I34
tp4325
a(V\u8fe2
I34
tp4326
a(V\u8368
I34
tp4327
a(V\u660a
I34
tp4328
a(V\u9cdf
I34
tp4329
a(V\u6fa7
I34
tp4330
a(V\u630e
I34
tp4331
a(V\u81a6
I34
tp4332
a(V\u7747
I34
tp4333
a(V\u85ae
I34
tp4334
a(V\u612b
I34
tp4335
a(V\u7852
I34
tp4336
a(V\u9730
I34
tp4337
a(V\u4edf
I34
tp4338
a(V\u7260
I34
tp4339
a(V\u51a2
I34
tp4340
a(V\u869c
I34
tp4341
a(V\u59be
I33
tp4342
a(V\u83b4
I33
tp4343
a(V\u6376
I33
tp4344
a(V\u6684
I33
tp4345
a(V\u9e93
I33
tp4346
a(V\u4eb3
I33
tp4347
a(V\u6556
I33
tp4348
a(V\u998b
I33
tp4349
a(V\u523d
I33
tp4350
a(V\u9a9e
I33
tp4351
a(V\u961c
I33
tp4352
a(V\u8169
I33
tp4353
a(V\u72f3
I33
tp4354
a(V\u6396
I33
tp4355
a(V\u75d4
I33
tp4356
a(V\u9512
I33
tp4357
a(V\u75bd
I33
tp4358
a(V\u9c9f
I33
tp4359
a(V\u77ad
I33
tp4360
a(V\u606b
I33
tp4361
a(V\u544e
I33
tp4362
a(V\u7ee2
I33
tp4363
a(V\u4f2b
I33
tp4364
a(V\u620c
I33
tp4365
a(V\u4e28
I33
tp4366
a(V\u94af
I33
tp4367
a(V\u796f
I33
tp4368
a(V\u4f97
I32
tp4369
a(V\u5b71
I32
tp4370
a(V\u67e9
I32
tp4371
a(V\u9cd6
I32
tp4372
a(V\u8bf9
I32
tp4373
a(V\u5e7a
I32
tp4374
a(V\u5c4c
I32
tp4375
a(V\u94ee
I32
tp4376
a(V\u5807
I32
tp4377
a(V\u61d1
I32
tp4378
a(V\u8469
I32
tp4379
a(V\u8c47
I32
tp4380
a(V\u8bff
I32
tp4381
a(V\u7601
I32
tp4382
a(V\u5d69
I32
tp4383
a(V\u9e22
I32
tp4384
a(V\u5bdb
I32
tp4385
a(V\u7eb0
I32
tp4386
a(V\u7c95
I31
tp4387
a(V\u50a3
I31
tp4388
a(V\u5043
I31
tp4389
a(V\u95f1
I31
tp4390
a(V\u5c50
I31
tp4391
a(V\u5576
I31
tp4392
a(V\u57a0
I31
tp4393
a(V\u6dae
I31
tp4394
a(V\u9fa2
I31
tp4395
a(V\u610e
I31
tp4396
a(V\u6cfe
I31
tp4397
a(V\u6c8f
I31
tp4398
a(V\u62da
I31
tp4399
a(V\u6d5c
I31
tp4400
a(V\u59e3
I31
tp4401
a(V\u62a1
I31
tp4402
a(V\u5f87
I31
tp4403
a(V\u6414
I31
tp4404
a(V\u72b0
I31
tp4405
a(V\u6fc2
I30
tp4406
a(V\u731e
I30
tp4407
a(V\u968b
I30
tp4408
a(V\u80db
I30
tp4409
a(V\u75e8
I30
tp4410
a(V\u680e
I30
tp4411
a(V\u9570
I30
tp4412
a(V\u5464
I30
tp4413
a(V\u53f1
I30
tp4414
a(V\u724d
I30
tp4415
a(V\u7fce
I29
tp4416
a(V\u6248
I29
tp4417
a(V\u86f1
I29
tp4418
a(V\u795b
I29
tp4419
a(V\u6c2a
I29
tp4420
a(V\u86f9
I29
tp4421
a(V\u5a75
I29
tp4422
a(V\u7835
I29
tp4423
a(V\u73ba
I29
tp4424
a(V\u6cef
I29
tp4425
a(V\u6225
I29
tp4426
a(V\u5599
I29
tp4427
a(V\u6078
I29
tp4428
a(V\u6d52
I29
tp4429
a(V\u5482
I29
tp4430
a(V\u520d
I29
tp4431
a(V\u7cbc
I29
tp4432
a(V\u54a6
I29
tp4433
a(V\u81ca
I29
tp4434
a(V\u9a6e
I29
tp4435
a(V\u5ce8
I28
tp4436
a(V\u6485
I28
tp4437
a(V\u90b0
I28
tp4438
a(V\u6026
I28
tp4439
a(V\u62bf
I28
tp4440
a(V\u57f8
I28
tp4441
a(V\u9ebd
I28
tp4442
a(V\u854a
I28
tp4443
a(V\u73c9
I28
tp4444
a(V\u9ee0
I28
tp4445
a(V\u9550
I28
tp4446
a(V\u9791
I28
tp4447
a(V\u8222
I28
tp4448
a(V\u7f08
I28
tp4449
a(V\u84bf
I28
tp4450
a(V\u87a8
I28
tp4451
a(V\u9b03
I28
tp4452
a(V\u60ab
I27
tp4453
a(V\u9955
I27
tp4454
a(V\u6840
I27
tp4455
a(V\u992e
I27
tp4456
a(V\u82d3
I27
tp4457
a(V\u7f25
I27
tp4458
a(V\u7825
I27
tp4459
a(V\u9cb1
I27
tp4460
a(V\u742c
I27
tp4461
a(V\u7cef
I27
tp4462
a(V\u5f2d
I27
tp4463
a(V\u997d
I27
tp4464
a(V\u98e8
I27
tp4465
a(V\u8934
I27
tp4466
a(V\u655d
I27
tp4467
a(V\u57ed
I27
tp4468
a(V\u5811
I27
tp4469
a(V\u7bd3
I27
tp4470
a(V\u7b60
I27
tp4471
a(V\u8885
I27
tp4472
a(V\u64b8
I27
tp4473
a(V\u747e
I26
tp4474
a(V\u600f
I26
tp4475
a(V\u6c39
I26
tp4476
a(V\u9ed4
I26
tp4477
a(V\u75cd
I26
tp4478
a(V\u7266
I26
tp4479
a(V\u7619
I26
tp4480
a(V\u7b75
I26
tp4481
a(V\u79e7
I26
tp4482
a(V\u5a23
I26
tp4483
a(V\u54de
I26
tp4484
a(V\u8298
I26
tp4485
a(V\u64de
I26
tp4486
a(V\u9e3e
I25
tp4487
a(V\u73e5
I25
tp4488
a(V\u4f43
I25
tp4489
a(V\u79c6
I25
tp4490
a(V\u6fe1
I25
tp4491
a(V\u996f
I25
tp4492
a(V\u550f
I25
tp4493
a(V\u5fa8
I25
tp4494
a(V\u64e4
I25
tp4495
a(V\u94e4
I25
tp4496
a(V\u55ea
I25
tp4497
a(V\u907d
I25
tp4498
a(V\u79b9
I25
tp4499
a(V\u567b
I25
tp4500
a(V\u5345
I25
tp4501
a(V\u8be8
I25
tp4502
a(V\u8279
I25
tp4503
a(V\u6369
I25
tp4504
a(V\u75b8
I25
tp4505
a(V\u753e
I25
tp4506
a(V\u6860
I25
tp4507
a(V\u701b
I25
tp4508
a(V\u9a85
I25
tp4509
a(V\u90a1
I24
tp4510
a(V\u7166
I24
tp4511
a(V\u9f8b
I24
tp4512
a(V\u736d
I24
tp4513
a(V\u7ec9
I24
tp4514
a(V\u86d4
I24
tp4515
a(V\u8438
I24
tp4516
a(V\u5d58
I24
tp4517
a(V\u96c9
I24
tp4518
a(V\u8a07
I24
tp4519
a(V\u9a9c
I24
tp4520
a(V\u9a81
I24
tp4521
a(V\u5570
I24
tp4522
a(V\u592f
I24
tp4523
a(V\u9ca9
I23
tp4524
a(V\u94a1
I23
tp4525
a(V\u8d45
I23
tp4526
a(V\u8e2e
I23
tp4527
a(V\u9aa5
I23
tp4528
a(V\u76c2
I23
tp4529
a(V\u579b
I23
tp4530
a(V\u643d
I23
tp4531
a(V\u524c
I23
tp4532
a(V\u540b
I23
tp4533
a(V\u6634
I23
tp4534
a(V\u76c5
I23
tp4535
a(V\u6483
I23
tp4536
a(V\u7f28
I23
tp4537
a(V\u62c4
I23
tp4538
a(V\u94e0
I23
tp4539
a(V\u80ef
I23
tp4540
a(V\u5e1b
I23
tp4541
a(V\u9647
I23
tp4542
a(V\u7be6
I23
tp4543
a(V\u768e
I23
tp4544
a(V\u98d2
I23
tp4545
a(V\u6dd6
I23
tp4546
a(V\u8991
I23
tp4547
a(V\u9889
I23
tp4548
a(V\u952d
I23
tp4549
a(V\u53df
I23
tp4550
a(V\u6a35
I22
tp4551
a(V\u9e51
I22
tp4552
a(V\u56ff
I22
tp4553
a(V\u7ee5
I22
tp4554
a(V\u5b34
I22
tp4555
a(V\u5919
I22
tp4556
a(V\u5406
I22
tp4557
a(V\u7bd1
I22
tp4558
a(V\u54a4
I22
tp4559
a(V\u9cd0
I22
tp4560
a(V\u8709
I22
tp4561
a(V\u634b
I22
tp4562
a(V\u8093
I22
tp4563
a(V\u5664
I22
tp4564
a(V\u8019
I22
tp4565
a(V\u63c4
I22
tp4566
a(V\u69d0
I22
tp4567
a(V\u7edb
I22
tp4568
a(V\u7f2f
I22
tp4569
a(V\u9e2c
I22
tp4570
a(V\u530d
I22
tp4571
a(V\u6cf1
I22
tp4572
a(V\u54cc
I22
tp4573
a(V\u51bd
I22
tp4574
a(V\u7116
I21
tp4575
a(V\u53c1
I21
tp4576
a(V\u94f5
I21
tp4577
a(V\u781a
I21
tp4578
a(V\u852b
I21
tp4579
a(V\u557e
I21
tp4580
a(V\u54bf
I21
tp4581
a(V\u6994
I21
tp4582
a(V\u7634
I21
tp4583
a(V\u6753
I21
tp4584
a(V\u8228
I21
tp4585
a(V\u9afb
I21
tp4586
a(V\u59a9
I21
tp4587
a(V\u64c0
I21
tp4588
a(V\u9ca3
I21
tp4589
a(V\u6387
I21
tp4590
a(V\u5310
I21
tp4591
a(V\u8f6d
I21
tp4592
a(V\u50a9
I21
tp4593
a(V\u85dc
I21
tp4594
a(V\u86a3
I21
tp4595
a(V\u63f6
I21
tp4596
a(V\u5b73
I21
tp4597
a(V\u9e5a
I21
tp4598
a(V\u4fdf
I21
tp4599
a(V\u5f11
I21
tp4600
a(V\u6773
I21
tp4601
a(V\u9e4c
I21
tp4602
a(V\u8f95
I21
tp4603
a(V\u9503
I21
tp4604
a(V\u9e48
I21
tp4605
a(V\u83a0
I21
tp4606
a(V\u8763
I21
tp4607
a(V\u949c
I21
tp4608
a(V\u72de
I21
tp4609
a(V\u6c5b
I20
tp4610
a(V\u8708
I20
tp4611
a(V\u75fc
I20
tp4612
a(V\u5d34
I20
tp4613
a(V\u5575
I20
tp4614
a(V\u4edd
I20
tp4615
a(V\u6d43
I20
tp4616
a(V\u9509
I20
tp4617
a(V\u5535
I20
tp4618
a(V\u67a7
I20
tp4619
a(V\u6c74
I20
tp4620
a(V\u5414
I20
tp4621
a(V\u849f
I20
tp4622
a(V\u9cc9
I20
tp4623
a(V\u556b
I20
tp4624
a(V\u837d
I20
tp4625
a(V\u4f64
I20
tp4626
a(V\u7360
I20
tp4627
a(V\u948d
I20
tp4628
a(V\u60c7
I20
tp4629
a(V\u6b92
I20
tp4630
a(V\u7f45
I20
tp4631
a(V\u84bb
I20
tp4632
a(V\u9035
I20
tp4633
a(V\u9e55
I19
tp4634
a(V\u7a95
I19
tp4635
a(V\u637a
I19
tp4636
a(V\u837b
I19
tp4637
a(V\u540f
I19
tp4638
a(V\u72e8
I19
tp4639
a(V\u6c29
I19
tp4640
a(V\u7a88
I19
tp4641
a(V\u8693
I19
tp4642
a(V\u996c
I19
tp4643
a(V\u84bd
I19
tp4644
a(V\u5a55
I19
tp4645
a(V\u870a
I19
tp4646
a(V\u97eb
I19
tp4647
a(V\u5d82
I19
tp4648
a(V\u82ab
I19
tp4649
a(V\u7292
I19
tp4650
a(V\u5e61
I19
tp4651
a(V\u4e15
I19
tp4652
a(V\u56d7
I19
tp4653
a(V\u637b
I19
tp4654
a(V\u5e42
I19
tp4655
a(V\u9672
I19
tp4656
a(V\u6ee2
I19
tp4657
a(V\u5f3c
I18
tp4658
a(V\u5a62
I18
tp4659
a(V\u7b9c
I18
tp4660
a(V\u627a
I18
tp4661
a(V\u72f0
I18
tp4662
a(V\u951b
I18
tp4663
a(V\u749c
I18
tp4664
a(V\u8bdb
I18
tp4665
a(V\u88df
I18
tp4666
a(V\u8e59
I18
tp4667
a(V\u977c
I18
tp4668
a(V\u9ddb
I18
tp4669
a(V\u954a
I18
tp4670
a(V\u8052
I18
tp4671
a(V\u560c
I18
tp4672
a(V\u6809
I18
tp4673
a(V\u6005
I18
tp4674
a(V\u9621
I18
tp4675
a(V\u5555
I18
tp4676
a(V\u9ecd
I18
tp4677
a(V\u7ef6
I18
tp4678
a(V\u6120
I18
tp4679
a(V\u7301
I18
tp4680
a(V\u4f7b
I18
tp4681
a(V\u85d5
I18
tp4682
a(V\u8785
I18
tp4683
a(V\u86af
I18
tp4684
a(V\u558f
I18
tp4685
a(V\u9b13
I18
tp4686
a(V\u7ee6
I18
tp4687
a(V\u5861
I18
tp4688
a(V\u8c0f
I18
tp4689
a(V\u96f9
I17
tp4690
a(V\u9968
I17
tp4691
a(V\u86ed
I17
tp4692
a(V\u7654
I17
tp4693
a(V\u6e1a
I17
tp4694
a(V\u8c14
I17
tp4695
a(V\u664c
I17
tp4696
a(V\u9e82
I17
tp4697
a(V\u63e9
I17
tp4698
a(V\u6006
I17
tp4699
a(V\u9aa2
I17
tp4700
a(V\u9542
I17
tp4701
a(V\u5e44
I17
tp4702
a(V\u5a40
I17
tp4703
a(V\u9b2f
I17
tp4704
a(V\u5fea
I17
tp4705
a(V\u71b9
I17
tp4706
a(V\u8888
I17
tp4707
a(V\u7efa
I17
tp4708
a(V\u9619
I17
tp4709
a(V\u8429
I17
tp4710
a(V\u6f78
I17
tp4711
a(V\u63fe
I17
tp4712
a(V\u9984
I17
tp4713
a(V\u87af
I17
tp4714
a(V\u9495
I17
tp4715
a(V\u8148
I17
tp4716
a(V\u6cac
I17
tp4717
a(V\u9544
I17
tp4718
a(V\u8813
I17
tp4719
a(V\u6677
I17
tp4720
a(V\u7441
I17
tp4721
a(V\u5a09
I17
tp4722
a(V\u5b6c
I17
tp4723
a(V\u8d63
I17
tp4724
a(V\u73de
I17
tp4725
a(V\u5abe
I16
tp4726
a(V\u8132
I16
tp4727
a(V\u7fca
I16
tp4728
a(V\u6dfc
I16
tp4729
a(V\u690b
I16
tp4730
a(V\u807f
I16
tp4731
a(V\u7321
I16
tp4732
a(V\u9e69
I16
tp4733
a(V\u94cc
I16
tp4734
a(V\u5cb7
I16
tp4735
a(V\u502d
I16
tp4736
a(V\u5889
I16
tp4737
a(V\u6da3
I16
tp4738
a(V\u6b87
I16
tp4739
a(V\u500c
I16
tp4740
a(V\u6987
I16
tp4741
a(V\u8c06
I16
tp4742
a(V\u6ac8
I16
tp4743
a(V\u50a5
I16
tp4744
a(V\u98d5
I16
tp4745
a(V\u6fee
I16
tp4746
a(V\u8534
I16
tp4747
a(V\u835e
I16
tp4748
a(V\u4fa9
I16
tp4749
a(V\u693f
I16
tp4750
a(V\u5624
I16
tp4751
a(V\u6dde
I16
tp4752
a(V\u87ab
I16
tp4753
a(V\u998d
I16
tp4754
a(V\u5b24
I16
tp4755
a(V\u859c
I16
tp4756
a(V\u955b
I16
tp4757
a(V\u740f
I15
tp4758
a(V\u8bb4
I15
tp4759
a(V\u8c04
I15
tp4760
a(V\u6748
I15
tp4761
a(V\u6035
I15
tp4762
a(V\u6b91
I15
tp4763
a(V\u97ed
I15
tp4764
a(V\u7b1e
I15
tp4765
a(V\u6654
I15
tp4766
a(V\u8210
I15
tp4767
a(V\u5c80
I15
tp4768
a(V\u59d8
I15
tp4769
a(V\u70e8
I15
tp4770
a(V\u5b5b
I15
tp4771
a(V\u7284
I15
tp4772
a(V\u9359
I15
tp4773
a(V\u6862
I15
tp4774
a(V\u7630
I15
tp4775
a(V\u5472
I15
tp4776
a(V\u6901
I15
tp4777
a(V\u6996
I15
tp4778
a(V\u4ec3
I15
tp4779
a(V\u7b20
I15
tp4780
a(V\u6b9a
I15
tp4781
a(V\u8884
I15
tp4782
a(V\u9e5e
I15
tp4783
a(V\u7118
I15
tp4784
a(V\u9cb2
I15
tp4785
a(V\u9534
I15
tp4786
a(V\u95e9
I15
tp4787
a(V\u6d04
I15
tp4788
a(V\u9567
I15
tp4789
a(V\u742e
I15
tp4790
a(V\u7699
I15
tp4791
a(V\u6de6
I15
tp4792
a(V\u501c
I15
tp4793
a(V\u6014
I15
tp4794
a(V\u8d32
I14
tp4795
a(V\u8c32
I14
tp4796
a(V\u6dd9
I14
tp4797
a(V\u821b
I14
tp4798
a(V\u62bb
I14
tp4799
a(V\u95f5
I14
tp4800
a(V\u80c4
I14
tp4801
a(V\u5ae1
I14
tp4802
a(V\u58c6
I14
tp4803
a(V\u8037
I14
tp4804
a(V\u8869
I14
tp4805
a(V\u7eeb
I14
tp4806
a(V\u6b38
I14
tp4807
a(V\u65ee
I14
tp4808
a(V\u9990
I14
tp4809
a(V\u507b
I14
tp4810
a(V\u54da
I14
tp4811
a(V\u9c9b
I14
tp4812
a(V\u7696
I14
tp4813
a(V\u8921
I14
tp4814
a(V\u56f5
I14
tp4815
a(V\u711c
I14
tp4816
a(V\u9cc5
I14
tp4817
a(V\u53f5
I14
tp4818
a(V\u5958
I14
tp4819
a(V\u94bf
I14
tp4820
a(V\u7fb8
I14
tp4821
a(V\u69c3
I14
tp4822
a(V\u8e3d
I14
tp4823
a(V\u7ea8
I13
tp4824
a(V\u7622
I13
tp4825
a(V\u8004
I13
tp4826
a(V\u835c
I13
tp4827
a(V\u8dd6
I13
tp4828
a(V\u6c16
I13
tp4829
a(V\u73e9
I13
tp4830
a(V\u65ce
I13
tp4831
a(V\u8f55
I13
tp4832
a(V\u693d
I13
tp4833
a(V\u741a
I13
tp4834
a(V\u56eb
I13
tp4835
a(V\u531d
I13
tp4836
a(V\u74f4
I13
tp4837
a(V\u5530
I13
tp4838
a(V\u6963
I13
tp4839
a(V\u5a67
I13
tp4840
a(V\u53e1
I13
tp4841
a(V\u7812
I13
tp4842
a(V\u4e1e
I13
tp4843
a(V\u65ef
I13
tp4844
a(V\u6c19
I13
tp4845
a(V\u5250
I13
tp4846
a(V\u9e4e
I13
tp4847
a(V\u9e37
I13
tp4848
a(V\u5a7a
I13
tp4849
a(V\u9a78
I13
tp4850
a(V\u54d9
I13
tp4851
a(V\u608c
I13
tp4852
a(V\u8f7c
I13
tp4853
a(V\u7934
I13
tp4854
a(V\u765e
I13
tp4855
a(V\u97a3
I13
tp4856
a(V\u8f47
I13
tp4857
a(V\u9190
I13
tp4858
a(V\u4f58
I13
tp4859
a(V\u5bb8
I13
tp4860
a(V\u86ba
I13
tp4861
a(V\u739a
I13
tp4862
a(V\u6215
I13
tp4863
a(V\u549d
I13
tp4864
a(V\u918d
I13
tp4865
a(V\u5c15
I13
tp4866
a(V\u4f5d
I13
tp4867
a(V\u9e67
I13
tp4868
a(V\u9ed2
I13
tp4869
a(V\u7ba9
I13
tp4870
a(V\u9422
I13
tp4871
a(V\u6332
I13
tp4872
a(V\u80dd
I13
tp4873
a(V\u886e
I13
tp4874
a(V\u63b4
I13
tp4875
a(V\u54e7
I13
tp4876
a(V\u7ea1
I13
tp4877
a(V\u800b
I13
tp4878
a(V\u67b8
I13
tp4879
a(V\u607b
I13
tp4880
a(V\u7086
I13
tp4881
a(V\u80fc
I13
tp4882
a(V\u5187
I13
tp4883
a(V\u4fe3
I13
tp4884
a(V\u953a
I12
tp4885
a(V\u77bf
I12
tp4886
a(V\u9c8e
I12
tp4887
a(V\u7aa0
I12
tp4888
a(V\u8bcf
I12
tp4889
a(V\u94f1
I12
tp4890
a(V\u84e6
I12
tp4891
a(V\u564c
I12
tp4892
a(V\u7ea3
I12
tp4893
a(V\u4f57
I12
tp4894
a(V\u56af
I12
tp4895
a(V\u4fce
I12
tp4896
a(V\u5cab
I12
tp4897
a(V\u9021
I12
tp4898
a(V\u8ff3
I12
tp4899
a(V\u6b74
I12
tp4900
a(V\u6daa
I12
tp4901
a(V\u725d
I12
tp4902
a(V\u8862
I12
tp4903
a(V\u9506
I12
tp4904
a(V\u6ff6
I12
tp4905
a(V\u9e2a
I12
tp4906
a(V\u8340
I12
tp4907
a(V\u5a11
I12
tp4908
a(V\u65d6
I12
tp4909
a(V\u94e9
I12
tp4910
a(V\u8431
I12
tp4911
a(V\u83b3
I12
tp4912
a(V\u6c82
I12
tp4913
a(V\u830f
I12
tp4914
a(V\u6636
I12
tp4915
a(V\u5e96
I12
tp4916
a(V\u975b
I12
tp4917
a(V\u665f
I11
tp4918
a(V\u6ec2
I11
tp4919
a(V\u79f8
I11
tp4920
a(V\u9492
I11
tp4921
a(V\u93d6
I11
tp4922
a(V\u5a06
I11
tp4923
a(V\u576d
I11
tp4924
a(V\u956b
I11
tp4925
a(V\u7faf
I11
tp4926
a(V\u69ce
I11
tp4927
a(V\u94e3
I11
tp4928
a(V\u8f87
I11
tp4929
a(V\u500f
I11
tp4930
a(V\u6ed8
I11
tp4931
a(V\u66dc
I11
tp4932
a(V\u6fd1
I11
tp4933
a(V\u63d1
I11
tp4934
a(V\u6c21
I11
tp4935
a(V\u5572
I11
tp4936
a(V\u6fb6
I11
tp4937
a(V\u84c1
I11
tp4938
a(V\u9894
I11
tp4939
a(V\u9994
I11
tp4940
a(V\u5d27
I11
tp4941
a(V\u9553
I11
tp4942
a(V\u5ba5
I11
tp4943
a(V\u5800
I11
tp4944
a(V\u9475
I11
tp4945
a(V\u5432
I11
tp4946
a(V\u7afd
I11
tp4947
a(V\u63ac
I11
tp4948
a(V\u876e
I11
tp4949
a(V\u5ad4
I11
tp4950
a(V\u90f8
I11
tp4951
a(V\u9150
I11
tp4952
a(V\u69ed
I11
tp4953
a(V\u5e8b
I11
tp4954
a(V\u7eb4
I11
tp4955
a(V\u5605
I11
tp4956
a(V\u9cab
I11
tp4957
a(V\u6f4d
I11
tp4958
a(V\u54a3
I10
tp4959
a(V\u9536
I10
tp4960
a(V\u5ffb
I10
tp4961
a(V\u828a
I10
tp4962
a(V\u9a9d
I10
tp4963
a(V\u82cb
I10
tp4964
a(V\u562c
I10
tp4965
a(V\u9286
I10
tp4966
a(V\u4f5f
I10
tp4967
a(V\u938f
I10
tp4968
a(V\u56e1
I10
tp4969
a(V\u69c1
I10
tp4970
a(V\u5454
I10
tp4971
a(V\u5872
I10
tp4972
a(V\u6d94
I10
tp4973
a(V\u7fb2
I10
tp4974
a(V\u6662
I10
tp4975
a(V\u5c98
I10
tp4976
a(V\u94c8
I10
tp4977
a(V\u9e2b
I10
tp4978
a(V\u955d
I10
tp4979
a(V\u6a79
I10
tp4980
a(V\u7ed4
I10
tp4981
a(V\u6cb1
I10
tp4982
a(V\u7178
I10
tp4983
a(V\u815a
I10
tp4984
a(V\u6cee
I10
tp4985
a(V\u5627
I10
tp4986
a(V\u620d
I10
tp4987
a(V\u5658
I10
tp4988
a(V\u7596
I10
tp4989
a(V\u6f7c
I10
tp4990
a(V\u7b33
I10
tp4991
a(V\u955e
I10
tp4992
a(V\u6715
I10
tp4993
a(V\u6861
I10
tp4994
a(V\u9997
I10
tp4995
a(V\u5208
I10
tp4996
a(V\u71b5
I10
tp4997
a(V\u714a
I10
tp4998
a(V\u7f01
I10
tp4999
a(V\u4ec4
I10
tp5000
a(V\u9e63
I10
tp5001
a(V\u988d
I10
tp5002
a(V\u7c0c
I10
tp5003
a(V\u7b9d
I10
tp5004
a(V\u93c2
I10
tp5005
a(V\u9f89
I10
tp5006
a(V\u791f
I10
tp5007
a(V\u8c7a
I10
tp5008
a(V\u6d60
I10
tp5009
a(V\u6989
I9
tp5010
a(V\u7cf8
I9
tp5011
a(V\u8eda
I9
tp5012
a(V\u9ee2
I9
tp5013
a(V\u6c7e
I9
tp5014
a(V\u9517
I9
tp5015
a(V\u6df8
I9
tp5016
a(V\u782d
I9
tp5017
a(V\u88e2
I9
tp5018
a(V\u83c0
I9
tp5019
a(V\u9537
I9
tp5020
a(V\u7962
I9
tp5021
a(V\u5ef8
I9
tp5022
a(V\u659b
I9
tp5023
a(V\u5c22
I9
tp5024
a(V\u9f87
I9
tp5025
a(V\u752c
I9
tp5026
a(V\u956c
I9
tp5027
a(V\u75f3
I9
tp5028
a(V\u8bcc
I9
tp5029
a(V\u9f83
I9
tp5030
a(V\u729f
I9
tp5031
a(V\u7f2c
I9
tp5032
a(V\u877c
I9
tp5033
a(V\u8069
I9
tp5034
a(V\u4f76
I9
tp5035
a(V\u9e6a
I9
tp5036
a(V\u9162
I9
tp5037
a(V\u816d
I9
tp5038
a(V\u4e5c
I9
tp5039
a(V\u5477
I9
tp5040
a(V\u5577
I9
tp5041
a(V\u956a
I9
tp5042
a(V\u8188
I9
tp5043
a(V\u6d6c
I9
tp5044
a(V\u95eb
I9
tp5045
a(V\u5a08
I9
tp5046
a(V\u80e4
I9
tp5047
a(V\u566b
I9
tp5048
a(V\u55de
I9
tp5049
a(V\u9cef
I9
tp5050
a(V\u54f5
I9
tp5051
a(V\u7746
I9
tp5052
a(V\u55b9
I9
tp5053
a(V\u8c89
I9
tp5054
a(V\u81ec
I9
tp5055
a(V\u6800
I9
tp5056
a(V\u8e85
I9
tp5057
a(V\u94fc
I9
tp5058
a(V\u67a5
I9
tp5059
a(V\u90af
I9
tp5060
a(V\u654d
I9
tp5061
a(V\u715c
I9
tp5062
a(V\u89e5
I9
tp5063
a(V\u55f2
I9
tp5064
a(V\u8f8a
I8
tp5065
a(V\u83d6
I8
tp5066
a(V\u8e49
I8
tp5067
a(V\u84d6
I8
tp5068
a(V\u5efb
I8
tp5069
a(V\u520e
I8
tp5070
a(V\u5fe4
I8
tp5071
a(V\u6c85
I8
tp5072
a(V\u7791
I8
tp5073
a(V\u7b39
I8
tp5074
a(V\u6631
I8
tp5075
a(V\u9e32
I8
tp5076
a(V\u9b1f
I8
tp5077
a(V\u68bf
I8
tp5078
a(V\u8bd3
I8
tp5079
a(V\u6d39
I8
tp5080
a(V\u80bc
I8
tp5081
a(V\u9149
I8
tp5082
a(V\u5a43
I8
tp5083
a(V\u867b
I8
tp5084
a(V\u9c15
I8
tp5085
a(V\u5639
I8
tp5086
a(V\u9efe
I8
tp5087
a(V\u7fa7
I8
tp5088
a(V\u9e3b
I8
tp5089
a(V\u8e2f
I8
tp5090
a(V\u990d
I8
tp5091
a(V\u5ce5
I8
tp5092
a(V\u5591
I8
tp5093
a(V\u9552
I8
tp5094
a(V\u7094
I8
tp5095
a(V\u8174
I8
tp5096
a(V\u5481
I8
tp5097
a(V\u5416
I8
tp5098
a(V\u6079
I8
tp5099
a(V\u88fe
I8
tp5100
a(V\u9974
I8
tp5101
a(V\u749f
I8
tp5102
a(V\u603c
I8
tp5103
a(V\u6979
I8
tp5104
a(V\u535f
I8
tp5105
a(V\u7678
I8
tp5106
a(V\u9e29
I8
tp5107
a(V\u5cea
I8
tp5108
a(V\u9421
I8
tp5109
a(V\u9562
I8
tp5110
a(V\u94f7
I8
tp5111
a(V\u7c7c
I8
tp5112
a(V\u948c
I8
tp5113
a(V\u8f71
I8
tp5114
a(V\u8e2c
I8
tp5115
a(V\u5a32
I8
tp5116
a(V\u50d6
I8
tp5117
a(V\u6c69
I8
tp5118
a(V\u7618
I8
tp5119
a(V\u6d7c
I8
tp5120
a(V\u9cae
I8
tp5121
a(V\u85ff
I8
tp5122
a(V\u7b2b
I8
tp5123
a(V\u9aef
I8
tp5124
a(V\u6978
I8
tp5125
a(V\u843c
I8
tp5126
a(V\u7ec0
I8
tp5127
a(V\u6e61
I8
tp5128
a(V\u9991
I8
tp5129
a(V\u5ffe
I8
tp5130
a(V\u8198
I8
tp5131
a(V\u8548
I8
tp5132
a(V\u80f4
I8
tp5133
a(V\u6b10
I8
tp5134
a(V\u9cca
I8
tp5135
a(V\u5659
I8
tp5136
a(V\u683e
I8
tp5137
a(V\u52ee
I8
tp5138
a(V\u5533
I8
tp5139
a(V\u6555
I8
tp5140
a(V\u55df
I8
tp5141
a(V\u9531
I8
tp5142
a(V\u7950
I7
tp5143
a(V\u89de
I7
tp5144
a(V\u5b53
I7
tp5145
a(V\u60c6
I7
tp5146
a(V\u7f22
I7
tp5147
a(V\u74d2
I7
tp5148
a(V\u9ce2
I7
tp5149
a(V\u6dec
I7
tp5150
a(V\u732d
I7
tp5151
a(V\u98c7
I7
tp5152
a(V\u52eb
I7
tp5153
a(V\u789c
I7
tp5154
a(V\u9bed
I7
tp5155
a(V\u5880
I7
tp5156
a(V\u55f3
I7
tp5157
a(V\u9e2e
I7
tp5158
a(V\u8dcf
I7
tp5159
a(V\u535e
I7
tp5160
a(V\u98a6
I7
tp5161
a(V\u948f
I7
tp5162
a(V\u74e4
I7
tp5163
a(V\u816c
I7
tp5164
a(V\u9cbd
I7
tp5165
a(V\u9352
I7
tp5166
a(V\u80b1
I7
tp5167
a(V\u9011
I7
tp5168
a(V\u6c5a
I7
tp5169
a(V\u59dd
I7
tp5170
a(V\u9496
I7
tp5171
a(V\u94df
I7
tp5172
a(V\u5048
I7
tp5173
a(V\u6f4b
I7
tp5174
a(V\u6f74
I7
tp5175
a(V\u9c94
I7
tp5176
a(V\u695d
I7
tp5177
a(V\u8084
I7
tp5178
a(V\u8bf3
I7
tp5179
a(V\u7a37
I7
tp5180
a(V\u94d5
I7
tp5181
a(V\u71e7
I7
tp5182
a(V\u9ab6
I7
tp5183
a(V\u7f61
I7
tp5184
a(V\u8c02
I7
tp5185
a(V\u6a7c
I7
tp5186
a(V\u5fb4
I7
tp5187
a(V\u75c4
I7
tp5188
a(V\u84e0
I7
tp5189
a(V\u90c5
I7
tp5190
a(V\u9e71
I7
tp5191
a(V\u5549
I7
tp5192
a(V\u8be4
I7
tp5193
a(V\u82be
I7
tp5194
a(V\u75a5
I7
tp5195
a(V\u5ba6
I7
tp5196
a(V\u8872
I7
tp5197
a(V\u94e1
I7
tp5198
a(V\u7560
I7
tp5199
a(V\u8c98
I7
tp5200
a(V\u9250
I7
tp5201
a(V\u7768
I7
tp5202
a(V\u54d0
I7
tp5203
a(V\u82f4
I7
tp5204
a(V\u9016
I7
tp5205
a(V\u6564
I7
tp5206
a(V\u9044
I7
tp5207
a(V\u9b48
I7
tp5208
a(V\u9cdd
I7
tp5209
a(V\u59df
I7
tp5210
a(V\u5601
I7
tp5211
a(V\u5a9e
I7
tp5212
a(V\u70da
I7
tp5213
a(V\u9f85
I7
tp5214
a(V\u67fd
I7
tp5215
a(V\u571c
I7
tp5216
a(V\u8117
I6
tp5217
a(V\u7b2a
I6
tp5218
a(V\u9f51
I6
tp5219
a(V\u5453
I6
tp5220
a(V\u69ab
I6
tp5221
a(V\u50a7
I6
tp5222
a(V\u51a7
I6
tp5223
a(V\u68c2
I6
tp5224
a(V\u7c0b
I6
tp5225
a(V\u6844
I6
tp5226
a(V\u9751
I6
tp5227
a(V\u94fd
I6
tp5228
a(V\u7567
I6
tp5229
a(V\u8f6b
I6
tp5230
a(V\u51eb
I6
tp5231
a(V\u5556
I6
tp5232
a(V\u77ec
I6
tp5233
a(V\u73d9
I6
tp5234
a(V\u75c2
I6
tp5235
a(V\u7f03
I6
tp5236
a(V\u5571
I6
tp5237
a(V\u8c36
I6
tp5238
a(V\u9486
I6
tp5239
a(V\u93b4
I6
tp5240
a(V\u5c13
I6
tp5241
a(V\u86c4
I6
tp5242
a(V\u9765
I6
tp5243
a(V\u5cbf
I6
tp5244
a(V\u670a
I6
tp5245
a(V\u5654
I6
tp5246
a(V\u6cc5
I6
tp5247
a(V\u6a84
I6
tp5248
a(V\u58f8
I6
tp5249
a(V\u841c
I6
tp5250
a(V\u4fab
I6
tp5251
a(V\u8dd7
I6
tp5252
a(V\u6a3c
I6
tp5253
a(V\u57d9
I6
tp5254
a(V\u94c4
I6
tp5255
a(V\u8893
I6
tp5256
a(V\u9642
I6
tp5257
a(V\u93c4
I6
tp5258
a(V\u6ca3
I6
tp5259
a(V\u8315
I6
tp5260
a(V\u82aa
I6
tp5261
a(V\u8f8b
I6
tp5262
a(V\u8bdc
I6
tp5263
a(V\u7893
I6
tp5264
a(V\u93ba
I6
tp5265
a(V\u6942
I6
tp5266
a(V\u56d3
I6
tp5267
a(V\u9366
I6
tp5268
a(V\u94d1
I6
tp5269
a(V\u79e3
I6
tp5270
a(V\u6f15
I6
tp5271
a(V\u57da
I6
tp5272
a(V\u546f
I6
tp5273
a(V\u5158
I6
tp5274
a(V\u9a88
I6
tp5275
a(V\u6f24
I6
tp5276
a(V\u5b17
I6
tp5277
a(V\u5586
I6
tp5278
a(V\u75f2
I6
tp5279
a(V\u8c62
I6
tp5280
a(V\u9ee9
I6
tp5281
a(V\u6c86
I6
tp5282
a(V\u5c7c
I6
tp5283
a(V\u9aa0
I6
tp5284
a(V\u5769
I6
tp5285
a(V\u9350
I6
tp5286
a(V\u5bf2
I6
tp5287
a(V\u5af2
I6
tp5288
a(V\u7cc7
I6
tp5289
a(V\u6468
I6
tp5290
a(V\u57c8
I6
tp5291
a(V\u5b05
I6
tp5292
a(V\u5f01
I6
tp5293
a(V\u90f4
I6
tp5294
a(V\u617f
I6
tp5295
a(V\u8e1f
I5
tp5296
a(V\u94b8
I5
tp5297
a(V\u7826
I5
tp5298
a(V\u6603
I5
tp5299
a(V\u7039
I5
tp5300
a(V\u7f26
I5
tp5301
a(V\u9cbc
I5
tp5302
a(V\u651e
I5
tp5303
a(V\u7fe5
I5
tp5304
a(V\u784c
I5
tp5305
a(V\u5729
I5
tp5306
a(V\u63c6
I5
tp5307
a(V\u5d4b
I5
tp5308
a(V\u8c17
I5
tp5309
a(V\u7095
I5
tp5310
a(V\u7a39
I5
tp5311
a(V\u9604
I5
tp5312
a(V\u848e
I5
tp5313
a(V\u502c
I5
tp5314
a(V\u61b7
I5
tp5315
a(V\u52ef
I5
tp5316
a(V\u590a
I5
tp5317
a(V\u8df9
I5
tp5318
a(V\u78ec
I5
tp5319
a(V\u97f1
I5
tp5320
a(V\u8418
I5
tp5321
a(V\u7fd5
I5
tp5322
a(V\u9e28
I5
tp5323
a(V\u55e5
I5
tp5324
a(V\u822b
I5
tp5325
a(V\u5022
I5
tp5326
a(V\u8e70
I5
tp5327
a(V\u68c1
I5
tp5328
a(V\u9615
I5
tp5329
a(V\u57a8
I5
tp5330
a(V\u5ff8
I5
tp5331
a(V\u5550
I5
tp5332
a(V\u69d8
I5
tp5333
a(V\u6966
I5
tp5334
a(V\u7ff3
I5
tp5335
a(V\u90c4
I5
tp5336
a(V\u5ef0
I5
tp5337
a(V\u746d
I5
tp5338
a(V\u7b02
I5
tp5339
a(V\u935d
I5
tp5340
a(V\u8de3
I5
tp5341
a(V\u607d
I5
tp5342
a(V\u87bd
I5
tp5343
a(V\u7b5a
I5
tp5344
a(V\u9cc0
I5
tp5345
a(V\u81fe
I5
tp5346
a(V\u9e42
I5
tp5347
a(V\u761d
I5
tp5348
a(V\u76b2
I5
tp5349
a(V\u73a2
I5
tp5350
a(V\u69f2
I5
tp5351
a(V\u6f33
I5
tp5352
a(V\u7efe
I5
tp5353
a(V\u8d30
I5
tp5354
a(V\u934f
I5
tp5355
a(V\u679e
I5
tp5356
a(V\u590c
I5
tp5357
a(V\u7ccc
I5
tp5358
a(V\u8d53
I5
tp5359
a(V\u8d94
I5
tp5360
a(V\u93ae
I5
tp5361
a(V\u9688
I5
tp5362
a(V\u8dba
I5
tp5363
a(V\u6769
I5
tp5364
a(V\u8c25
I5
tp5365
a(V\u915e
I5
tp5366
a(V\u9c80
I5
tp5367
a(V\u8c35
I5
tp5368
a(V\u9cbb
I5
tp5369
a(V\u7023
I5
tp5370
a(V\u9039
I5
tp5371
a(V\u94b7
I5
tp5372
a(V\u96a0
I5
tp5373
a(V\u6c32
I5
tp5374
a(V\u64ed
I5
tp5375
a(V\u87ca
I5
tp5376
a(V\u629d
I5
tp5377
a(V\u6d58
I5
tp5378
a(V\u7168
I5
tp5379
a(V\u7f36
I5
tp5380
a(V\u5452
I5
tp5381
a(V\u67b0
I5
tp5382
a(V\u6e41
I5
tp5383
a(V\u6c68
I5
tp5384
a(V\u7f1f
I5
tp5385
a(V\u7c1f
I5
tp5386
a(V\u76b4
I5
tp5387
a(V\u8dce
I5
tp5388
a(V\u8226
I5
tp5389
a(V\u9e6e
I5
tp5390
a(V\u75b4
I5
tp5391
a(V\u945b
I5
tp5392
a(V\u7ada
I5
tp5393
a(V\u6d0c
I5
tp5394
a(V\u6e36
I5
tp5395
a(V\u88e5
I5
tp5396
a(V\u9507
I5
tp5397
a(V\u83a8
I5
tp5398
a(V\u9036
I4
tp5399
a(V\u52cd
I4
tp5400
a(V\u70b7
I4
tp5401
a(V\u88c7
I4
tp5402
a(V\u6b5b
I4
tp5403
a(V\u6c31
I4
tp5404
a(V\u9f10
I4
tp5405
a(V\u5c7d
I4
tp5406
a(V\u97ea
I4
tp5407
a(V\u9a77
I4
tp5408
a(V\u6d98
I4
tp5409
a(V\u6aab
I4
tp5410
a(V\u9351
I4
tp5411
a(V\u831b
I4
tp5412
a(V\u94ea
I4
tp5413
a(V\u9ca1
I4
tp5414
a(V\u61b3
I4
tp5415
a(V\u780f
I4
tp5416
a(V\u8249
I4
tp5417
a(V\u8373
I4
tp5418
a(V\u4e6a
I4
tp5419
a(V\u5d88
I4
tp5420
a(V\u853a
I4
tp5421
a(V\u781e
I4
tp5422
a(V\u9004
I4
tp5423
a(V\u5bf3
I4
tp5424
a(V\u6cf8
I4
tp5425
a(V\u75b3
I4
tp5426
a(V\u8c8e
I4
tp5427
a(V\u6391
I4
tp5428
a(V\u5897
I4
tp5429
a(V\u7fd9
I4
tp5430
a(V\u8f8e
I4
tp5431
a(V\u596d
I4
tp5432
a(V\u5534
I4
tp5433
a(V\u5b80
I4
tp5434
a(V\u9a04
I4
tp5435
a(V\u8068
I4
tp5436
a(V\u8c0c
I4
tp5437
a(V\u58c5
I4
tp5438
a(V\u5c7e
I4
tp5439
a(V\u80d7
I4
tp5440
a(V\u6f5e
I4
tp5441
a(V\u96b9
I4
tp5442
a(V\u8c4a
I4
tp5443
a(V\u5622
I4
tp5444
a(V\u960d
I4
tp5445
a(V\u7ca7
I4
tp5446
a(V\u71ba
I4
tp5447
a(V\u5e91
I4
tp5448
a(V\u679f
I4
tp5449
a(V\u892b
I4
tp5450
a(V\u5b76
I4
tp5451
a(V\u6206
I4
tp5452
a(V\u665e
I4
tp5453
a(V\u98a2
I4
tp5454
a(V\u94aa
I4
tp5455
a(V\u9f0d
I4
tp5456
a(V\u79a3
I4
tp5457
a(V\u6b84
I4
tp5458
a(V\u7aa3
I4
tp5459
a(V\u784f
I4
tp5460
a(V\u7ee0
I4
tp5461
a(V\u94bd
I4
tp5462
a(V\u6ec1
I4
tp5463
a(V\u8770
I4
tp5464
a(V\u9ca2
I4
tp5465
a(V\u6b43
I4
tp5466
a(V\u74ef
I4
tp5467
a(V\u78b2
I4
tp5468
a(V\u64ba
I4
tp5469
a(V\u95c4
I4
tp5470
a(V\u5fdd
I4
tp5471
a(V\u57c2
I4
tp5472
a(V\u4f67
I4
tp5473
a(V\u9701
I4
tp5474
a(V\u54c2
I4
tp5475
a(V\u5c44
I4
tp5476
a(V\u9ac0
I4
tp5477
a(V\u6266
I4
tp5478
a(V\u65ff
I4
tp5479
a(V\u88e3
I4
tp5480
a(V\u6029
I4
tp5481
a(V\u795a
I4
tp5482
a(V\u6cf7
I4
tp5483
a(V\u92c8
I4
tp5484
a(V\u7606
I4
tp5485
a(V\u5ad9
I4
tp5486
a(V\u8930
I4
tp5487
a(V\u5036
I4
tp5488
a(V\u9a7d
I4
tp5489
a(V\u6b46
I4
tp5490
a(V\u5892
I4
tp5491
a(V\u4ede
I4
tp5492
a(V\u7278
I4
tp5493
a(V\u5dfd
I4
tp5494
a(V\u7bfe
I4
tp5495
a(V\u5914
I4
tp5496
a(V\u6c18
I4
tp5497
a(V\u8cae
I4
tp5498
a(V\u86c9
I4
tp5499
a(V\u6609
I4
tp5500
a(V\u5451
I4
tp5501
a(V\u75e7
I4
tp5502
a(V\u7a70
I4
tp5503
a(V\u945a
I4
tp5504
a(V\u7f33
I4
tp5505
a(V\u9a9f
I4
tp5506
a(V\u5d86
I4
tp5507
a(V\u5541
I4
tp5508
a(V\u71ee
I4
tp5509
a(V\u834f
I4
tp5510
a(V\u4fe6
I4
tp5511
a(V\u8c12
I4
tp5512
a(V\u5941
I4
tp5513
a(V\u8fe4
I4
tp5514
a(V\u6c24
I4
tp5515
a(V\u9ac1
I4
tp5516
a(V\u9088
I4
tp5517
a(V\u72b5
I4
tp5518
a(V\u6924
I4
tp5519
a(V\u66a6
I4
tp5520
a(V\u6499
I4
tp5521
a(V\u748e
I4
tp5522
a(V\u63d6
I4
tp5523
a(V\u8bf0
I4
tp5524
a(V\u71b8
I4
tp5525
a(V\u59aa
I4
tp5526
a(V\u696b
I4
tp5527
a(V\u83f0
I4
tp5528
a(V\u9ca0
I4
tp5529
a(V\u7ab8
I4
tp5530
a(V\u8dec
I4
tp5531
a(V\u97af
I4
tp5532
a(V\u83e1
I4
tp5533
a(V\u8f7e
I4
tp5534
a(V\u9603
I4
tp5535
a(V\u66b8
I4
tp5536
a(V\u8c2a
I4
tp5537
a(V\u84e5
I4
tp5538
a(V\u55c4
I4
tp5539
a(V\u57ad
I4
tp5540
a(V\u8039
I4
tp5541
a(V\u82ce
I4
tp5542
a(V\u6855
I4
tp5543
a(V\u9ac2
I4
tp5544
a(V\u82d2
I4
tp5545
a(V\u765c
I4
tp5546
a(V\u7958
I4
tp5547
a(V\u8839
I4
tp5548
a(V\u4ff6
I4
tp5549
a(V\u9ad9
I4
tp5550
a(V\u8ff5
I3
tp5551
a(V\u881b
I3
tp5552
a(V\u564f
I3
tp5553
a(V\u68f0
I3
tp5554
a(V\u728d
I3
tp5555
a(V\u5e6a
I3
tp5556
a(V\u770f
I3
tp5557
a(V\u7f7e
I3
tp5558
a(V\u6d35
I3
tp5559
a(V\u8699
I3
tp5560
a(V\u94cb
I3
tp5561
a(V\u65ab
I3
tp5562
a(V\u53a3
I3
tp5563
a(V\u9fa5
I3
tp5564
a(V\u9568
I3
tp5565
a(V\u6b81
I3
tp5566
a(V\u994d
I3
tp5567
a(V\u9d64
I3
tp5568
a(V\u67dd
I3
tp5569
a(V\u677a
I3
tp5570
a(V\u5684
I3
tp5571
a(V\u7498
I3
tp5572
a(V\u634c
I3
tp5573
a(V\u6663
I3
tp5574
a(V\u6867
I3
tp5575
a(V\u82a1
I3
tp5576
a(V\u8360
I3
tp5577
a(V\u7907
I3
tp5578
a(V\u8927
I3
tp5579
a(V\u7481
I3
tp5580
a(V\u83cf
I3
tp5581
a(V\u9a8a
I3
tp5582
a(V\u7f31
I3
tp5583
a(V\u78f4
I3
tp5584
a(V\u7a89
I3
tp5585
a(V\u9b08
I3
tp5586
a(V\u9482
I3
tp5587
a(V\u7398
I3
tp5588
a(V\u74c2
I3
tp5589
a(V\u7d98
I3
tp5590
a(V\u6ca4
I3
tp5591
a(V\u8b60
I3
tp5592
a(V\u5def
I3
tp5593
a(V\u5e19
I3
tp5594
a(V\u6395
I3
tp5595
a(V\u549b
I3
tp5596
a(V\u50f3
I3
tp5597
a(V\u6b7a
I3
tp5598
a(V\u8314
I3
tp5599
a(V\u5cc1
I3
tp5600
a(V\u9ada
I3
tp5601
a(V\u6767
I3
tp5602
a(V\u5d02
I3
tp5603
a(V\u7b6e
I3
tp5604
a(V\u7cec
I3
tp5605
a(V\u8114
I3
tp5606
a(V\u83d3
I3
tp5607
a(V\u7035
I3
tp5608
a(V\u622c
I3
tp5609
a(V\u94b9
I3
tp5610
a(V\u987c
I3
tp5611
a(V\u5ea8
I3
tp5612
a(V\u9cd4
I3
tp5613
a(V\u8bb5
I3
tp5614
a(V\u77cd
I3
tp5615
a(V\u866c
I3
tp5616
a(V\u82c4
I3
tp5617
a(V\u88c8
I3
tp5618
a(V\u96a2
I3
tp5619
a(V\u9ca6
I3
tp5620
a(V\u74b6
I3
tp5621
a(V\u7efb
I3
tp5622
a(V\u510f
I3
tp5623
a(V\u6106
I3
tp5624
a(V\u6a97
I3
tp5625
a(V\u5e0f
I3
tp5626
a(V\u58a0
I3
tp5627
a(V\u9569
I3
tp5628
a(V\u6902
I3
tp5629
a(V\u801c
I3
tp5630
a(V\u5fce
I3
tp5631
a(V\u5c7a
I3
tp5632
a(V\u6f43
I3
tp5633
a(V\u78a3
I3
tp5634
a(V\u7566
I3
tp5635
a(V\u8983
I3
tp5636
a(V\u6819
I3
tp5637
a(V\u86f2
I3
tp5638
a(V\u8cad
I3
tp5639
a(V\u5d89
I3
tp5640
a(V\u775a
I3
tp5641
a(V\u830d
I3
tp5642
a(V\u52ec
I3
tp5643
a(V\u6e6a
I3
tp5644
a(V\u9b46
I3
tp5645
a(V\u7a06
I3
tp5646
a(V\u581e
I3
tp5647
a(V\u7cb2
I3
tp5648
a(V\u7488
I3
tp5649
a(V\u5b2d
I3
tp5650
a(V\u9f2f
I3
tp5651
a(V\u6553
I3
tp5652
a(V\u57f4
I3
tp5653
a(V\u6ab6
I3
tp5654
a(V\u7f02
I3
tp5655
a(V\u8028
I3
tp5656
a(V\u92b5
I3
tp5657
a(V\u7cc1
I3
tp5658
a(V\u7c56
I3
tp5659
a(V\u63ff
I3
tp5660
a(V\u9487
I3
tp5661
a(V\u7e56
I3
tp5662
a(V\u94a3
I3
tp5663
a(V\u6e74
I3
tp5664
a(V\u534d
I3
tp5665
a(V\u9cbe
I3
tp5666
a(V\u96a3
I3
tp5667
a(V\u54cf
I3
tp5668
a(V\u93b6
I3
tp5669
a(V\u5f68
I3
tp5670
a(V\u94ba
I3
tp5671
a(V\u66ad
I3
tp5672
a(V\u768b
I3
tp5673
a(V\u94cd
I3
tp5674
a(V\u846d
I3
tp5675
a(V\u621c
I3
tp5676
a(V\u7352
I3
tp5677
a(V\u879f
I3
tp5678
a(V\u5ea5
I3
tp5679
a(V\u8d84
I3
tp5680
a(V\u81dc
I3
tp5681
a(V\u59f9
I3
tp5682
a(V\u9490
I3
tp5683
a(V\u5551
I3
tp5684
a(V\u7d8b
I3
tp5685
a(V\u9612
I3
tp5686
a(V\u7f37
I3
tp5687
a(V\u52ea
I3
tp5688
a(V\u5ecb
I3
tp5689
a(V\u6cd7
I3
tp5690
a(V\u5ea1
I3
tp5691
a(V\u583a
I3
tp5692
a(V\u9dc9
I3
tp5693
a(V\u95ae
I3
tp5694
a(V\u9e0a
I3
tp5695
a(V\u52ed
I3
tp5696
a(V\u80b6
I3
tp5697
a(V\u781c
I3
tp5698
a(V\u6cd4
I3
tp5699
a(V\u8779
I3
tp5700
a(V\u5b1b
I3
tp5701
a(V\u78f2
I3
tp5702
a(V\u94eb
I3
tp5703
a(V\u56ac
I3
tp5704
a(V\u824f
I3
tp5705
a(V\u8fa7
I3
tp5706
a(V\u7401
I3
tp5707
a(V\u7b09
I3
tp5708
a(V\u6437
I3
tp5709
a(V\u73ee
I3
tp5710
a(V\u820e
I3
tp5711
a(V\u5045
I3
tp5712
a(V\u65cc
I3
tp5713
a(V\u6e8f
I3
tp5714
a(V\u76b5
I3
tp5715
a(V\u95f3
I3
tp5716
a(V\u75c8
I3
tp5717
a(V\u6fb9
I3
tp5718
a(V\u8366
I3
tp5719
a(V\u51c7
I3
tp5720
a(V\u846a
I3
tp5721
a(V\u53b0
I3
tp5722
a(V\u6669
I3
tp5723
a(V\u7ed7
I3
tp5724
a(V\u7b05
I3
tp5725
a(V\u64d0
I3
tp5726
a(V\u84d1
I3
tp5727
a(V\u82d5
I3
tp5728
a(V\u4f77
I3
tp5729
a(V\u7851
I3
tp5730
a(V\u73a1
I3
tp5731
a(V\u7ea9
I3
tp5732
a(V\u94e5
I3
tp5733
a(V\u7f68
I3
tp5734
a(V\u8d5f
I3
tp5735
a(V\u73a5
I3
tp5736
a(V\u698a
I3
tp5737
a(V\u8835
I3
tp5738
a(V\u9c3d
I3
tp5739
a(V\u6941
I3
tp5740
a(V\u86f4
I3
tp5741
a(V\u53e7
I3
tp5742
a(V\u5793
I3
tp5743
a(V\u8748
I3
tp5744
a(V\u5c20
I3
tp5745
a(V\u5028
I3
tp5746
a(V\u7823
I3
tp5747
a(V\u88af
I3
tp5748
a(V\u7bf9
I3
tp5749
a(V\u6308
I3
tp5750
a(V\u655c
I3
tp5751
a(V\u573b
I3
tp5752
a(V\u5f4a
I3
tp5753
a(V\u7382
I3
tp5754
a(V\u8bd2
I3
tp5755
a(V\u828d
I3
tp5756
a(V\u9357
I3
tp5757
a(V\u8122
I3
tp5758
a(V\u4e69
I3
tp5759
a(V\u6c10
I3
tp5760
a(V\u623a
I3
tp5761
a(V\u50ee
I3
tp5762
a(V\u798a
I3
tp5763
a(V\u69ea
I3
tp5764
a(V\u7c9d
I3
tp5765
a(V\u5e46
I3
tp5766
a(V\u509a
I3
tp5767
a(V\u7fb0
I3
tp5768
a(V\u98ca
I3
tp5769
a(V\u9557
I3
tp5770
a(V\u8d67
I3
tp5771
a(V\u5c83
I3
tp5772
a(V\u56df
I3
tp5773
a(V\u4f78
I3
tp5774
a(V\u94ca
I3
tp5775
a(V\u5f42
I3
tp5776
a(V\u75f1
I3
tp5777
a(V\u7b04
I3
tp5778
a(V\u55db
I3
tp5779
a(V\u7173
I3
tp5780
a(V\u504a
I3
tp5781
a(V\u7322
I2
tp5782
a(V\u7850
I2
tp5783
a(V\u7bd2
I2
tp5784
a(V\u7fbf
I2
tp5785
a(V\u5625
I2
tp5786
a(V\u7a50
I2
tp5787
a(V\u9e68
I2
tp5788
a(V\u53b6
I2
tp5789
a(V\u89c7
I2
tp5790
a(V\u93cb
I2
tp5791
a(V\u90e2
I2
tp5792
a(V\u8f73
I2
tp5793
a(V\u8e5c
I2
tp5794
a(V\u56f7
I2
tp5795
a(V\u8e32
I2
tp5796
a(V\u6e72
I2
tp5797
a(V\u75a0
I2
tp5798
a(V\u87ac
I2
tp5799
a(V\u9d7b
I2
tp5800
a(V\u8399
I2
tp5801
a(V\u8c5c
I2
tp5802
a(V\u7b13
I2
tp5803
a(V\u71bb
I2
tp5804
a(V\u90e6
I2
tp5805
a(V\u7b76
I2
tp5806
a(V\u6e03
I2
tp5807
a(V\u82b0
I2
tp5808
a(V\u84b4
I2
tp5809
a(V\u5ce4
I2
tp5810
a(V\u56e8
I2
tp5811
a(V\u62f0
I2
tp5812
a(V\u7822
I2
tp5813
a(V\u79b7
I2
tp5814
a(V\u7ae1
I2
tp5815
a(V\u7d0f
I2
tp5816
a(V\u53d5
I2
tp5817
a(V\u6803
I2
tp5818
a(V\u82b4
I2
tp5819
a(V\u95e6
I2
tp5820
a(V\u947b
I2
tp5821
a(V\u851b
I2
tp5822
a(V\u6985
I2
tp5823
a(V\u7726
I2
tp5824
a(V\u62b3
I2
tp5825
a(V\u933e
I2
tp5826
a(V\u9e60
I2
tp5827
a(V\u8945
I2
tp5828
a(V\u89da
I2
tp5829
a(V\u727e
I2
tp5830
a(V\u8e41
I2
tp5831
a(V\u9b32
I2
tp5832
a(V\u86cf
I2
tp5833
a(V\u50eb
I2
tp5834
a(V\u7f35
I2
tp5835
a(V\u5871
I2
tp5836
a(V\u7ff4
I2
tp5837
a(V\u6c54
I2
tp5838
a(V\u69d2
I2
tp5839
a(V\u8fd3
I2
tp5840
a(V\u630b
I2
tp5841
a(V\u8177
I2
tp5842
a(V\u640b
I2
tp5843
a(V\u7af4
I2
tp5844
a(V\u84a1
I2
tp5845
a(V\u5456
I2
tp5846
a(V\u55eb
I2
tp5847
a(V\u5eb2
I2
tp5848
a(V\u5502
I2
tp5849
a(V\u9417
I2
tp5850
a(V\u94ac
I2
tp5851
a(V\u556d
I2
tp5852
a(V\u83b8
I2
tp5853
a(V\u509b
I2
tp5854
a(V\u569f
I2
tp5855
a(V\u60bb
I2
tp5856
a(V\u4f25
I2
tp5857
a(V\u7131
I2
tp5858
a(V\u5b2c
I2
tp5859
a(V\u5734
I2
tp5860
a(V\u935c
I2
tp5861
a(V\u9aed
I2
tp5862
a(V\u83bc
I2
tp5863
a(V\u5d5a
I2
tp5864
a(V\u5c84
I2
tp5865
a(V\u6a0b
I2
tp5866
a(V\u8351
I2
tp5867
a(V\u4f79
I2
tp5868
a(V\u539b
I2
tp5869
a(V\u559f
I2
tp5870
a(V\u6226
I2
tp5871
a(V\u72c6
I2
tp5872
a(V\u4f62
I2
tp5873
a(V\u67d2
I2
tp5874
a(V\u83ea
I2
tp5875
a(V\u5b84
I2
tp5876
a(V\u5819
I2
tp5877
a(V\u8923
I2
tp5878
a(V\u90de
I2
tp5879
a(V\u8fa1
I2
tp5880
a(V\u78af
I2
tp5881
a(V\u72b3
I2
tp5882
a(V\u7844
I2
tp5883
a(V\u6ea0
I2
tp5884
a(V\u6bce
I2
tp5885
a(V\u5c02
I2
tp5886
a(V\u6313
I2
tp5887
a(V\u5c6d
I2
tp5888
a(V\u6e9f
I2
tp5889
a(V\u7d29
I2
tp5890
a(V\u7ce8
I2
tp5891
a(V\u567a
I2
tp5892
a(V\u8605
I2
tp5893
a(V\u5ad2
I2
tp5894
a(V\u9424
I2
tp5895
a(V\u6fc9
I2
tp5896
a(V\u98e7
I2
tp5897
a(V\u9f69
I2
tp5898
a(V\u6b9b
I2
tp5899
a(V\u612c
I2
tp5900
a(V\u681d
I2
tp5901
a(V\u9b3b
I2
tp5902
a(V\u87ad
I2
tp5903
a(V\u9ee7
I2
tp5904
a(V\u97a2
I2
tp5905
a(V\u822f
I2
tp5906
a(V\u7953
I2
tp5907
a(V\u5f67
I2
tp5908
a(V\u5ffc
I2
tp5909
a(V\u8283
I2
tp5910
a(V\u9a93
I2
tp5911
a(V\u934e
I2
tp5912
a(V\u95a2
I2
tp5913
a(V\u53ce
I2
tp5914
a(V\u8359
I2
tp5915
a(V\u8318
I2
tp5916
a(V\u6934
I2
tp5917
a(V\u66c1
I2
tp5918
a(V\u5cd2
I2
tp5919
a(V\u4f85
I2
tp5920
a(V\u9715
I2
tp5921
a(V\u8f9a
I2
tp5922
a(V\u7921
I2
tp5923
a(V\u5c63
I2
tp5924
a(V\u9528
I2
tp5925
a(V\u9cb9
I2
tp5926
a(V\u7066
I2
tp5927
a(V\u65f3
I2
tp5928
a(V\u8e05
I2
tp5929
a(V\u7429
I2
tp5930
a(V\u5595
I2
tp5931
a(V\u6434
I2
tp5932
a(V\u6dc5
I2
tp5933
a(V\u7d25
I2
tp5934
a(V\u9eb9
I2
tp5935
a(V\u9052
I2
tp5936
a(V\u56e9
I2
tp5937
a(V\u567e
I2
tp5938
a(V\u7cba
I2
tp5939
a(V\u51fc
I2
tp5940
a(V\u85b1
I2
tp5941
a(V\u819e
I2
tp5942
a(V\u8570
I2
tp5943
a(V\u59f8
I2
tp5944
a(V\u57fc
I2
tp5945
a(V\u988f
I2
tp5946
a(V\u669b
I2
tp5947
a(V\u8074
I2
tp5948
a(V\u7e4b
I2
tp5949
a(V\u8bee
I2
tp5950
a(V\u625e
I2
tp5951
a(V\u543d
I2
tp5952
a(V\u6bd8
I2
tp5953
a(V\u789b
I2
tp5954
a(V\u85b9
I2
tp5955
a(V\u9559
I2
tp5956
a(V\u9518
I2
tp5957
a(V\u69fb
I2
tp5958
a(V\u7543
I2
tp5959
a(V\u9bb1
I2
tp5960
a(V\u755a
I2
tp5961
a(V\u9c74
I2
tp5962
a(V\u858f
I2
tp5963
a(V\u89e7
I2
tp5964
a(V\u5581
I2
tp5965
a(V\u6ea7
I2
tp5966
a(V\u5e07
I2
tp5967
a(V\u91ee
I2
tp5968
a(V\u74c1
I2
tp5969
a(V\u9c46
I2
tp5970
a(V\u952b
I2
tp5971
a(V\u68be
I2
tp5972
a(V\u8bd4
I2
tp5973
a(V\u868b
I2
tp5974
a(V\u6238
I2
tp5975
a(V\u5e5b
I2
tp5976
a(V\u8378
I2
tp5977
a(V\u88aa
I2
tp5978
a(V\u89d4
I2
tp5979
a(V\u5981
I2
tp5980
a(V\u8c78
I2
tp5981
a(V\u4f7a
I2
tp5982
a(V\u505b
I2
tp5983
a(V\u760a
I2
tp5984
a(V\u633c
I2
tp5985
a(V\u992b
I2
tp5986
a(V\u68b6
I2
tp5987
a(V\u50c6
I2
tp5988
a(V\u5d85
I2
tp5989
a(V\u7f19
I2
tp5990
a(V\u53c6
I2
tp5991
a(V\u64d5
I2
tp5992
a(V\u81e7
I2
tp5993
a(V\u97c8
I2
tp5994
a(V\u8c20
I2
tp5995
a(V\u5a44
I2
tp5996
a(V\u9546
I2
tp5997
a(V\u894e
I2
tp5998
a(V\u8d20
I2
tp5999
a(V\u8652
I2
tp6000
a(V\u65fb
I2
tp6001
a(V\u6f8c
I2
tp6002
a(V\u60be
I2
tp6003
a(V\u53f4
I2
tp6004
a(V\u6b0e
I2
tp6005
a(V\u941c
I2
tp6006
a(V\u8e20
I2
tp6007
a(V\u86d0
I2
tp6008
a(V\u515f
I2
tp6009
a(V\u5e14
I2
tp6010
a(V\u889b
I2
tp6011
a(V\u7bbd
I2
tp6012
a(V\u6edf
I2
tp6013
a(V\u6d9e
I2
tp6014
a(V\u91b6
I2
tp6015
a(V\u7161
I2
tp6016
a(V\u9a12
I2
tp6017
a(V\u98d1
I2
tp6018
a(V\u669a
I2
tp6019
a(V\u6d33
I2
tp6020
a(V\u983c
I2
tp6021
a(V\u7daa
I2
tp6022
a(V\u82c1
I2
tp6023
a(V\u6042
I2
tp6024
a(V\u5fd3
I2
tp6025
a(V\u61d7
I2
tp6026
a(V\u918c
I2
tp6027
a(V\u7c15
I2
tp6028
a(V\u8a9f
I2
tp6029
a(V\u8e47
I2
tp6030
a(V\u68c8
I2
tp6031
a(V\u5c7b
I2
tp6032
a(V\u5fbc
I2
tp6033
a(V\u6e70
I2
tp6034
a(V\u96e0
I2
tp6035
a(V\u90e4
I2
tp6036
a(V\u6442
I2
tp6037
a(V\u81ef
I2
tp6038
a(V\u9025
I2
tp6039
a(V\u914f
I2
tp6040
a(V\u6259
I2
tp6041
a(V\u869f
I2
tp6042
a(V\u682b
I2
tp6043
a(V\u99b6
I2
tp6044
a(V\u763f
I2
tp6045
a(V\u4f45
I2
tp6046
a(V\u60b1
I2
tp6047
a(V\u5c8e
I2
tp6048
a(V\u9e38
I2
tp6049
a(V\u9494
I2
tp6050
a(V\u5d64
I2
tp6051
a(V\u7f78
I2
tp6052
a(V\u74aa
I2
tp6053
a(V\u6dc4
I2
tp6054
a(V\u7093
I2
tp6055
a(V\u98a3
I2
tp6056
a(V\u5d36
I2
tp6057
a(V\u77bd
I2
tp6058
a(V\u5acf
I2
tp6059
a(V\u6ed7
I2
tp6060
a(V\u9f62
I2
tp6061
a(V\u6274
I2
tp6062
a(V\u7511
I2
tp6063
a(V\u5e77
I2
tp6064
a(V\u7b24
I2
tp6065
a(V\u973c
I2
tp6066
a(V\u624a
I2
tp6067
a(V\u8deb
I2
tp6068
a(V\u8b84
I2
tp6069
a(V\u9c21
I2
tp6070
a(V\u9aa3
I2
tp6071
a(V\u614a
I2
tp6072
a(V\u74e7
I2
tp6073
a(V\u6ec0
I2
tp6074
a(V\u9e4b
I2
tp6075
a(V\u9b79
I2
tp6076
a(V\u6cad
I2
tp6077
a(V\u66b1
I2
tp6078
a(V\u604a
I2
tp6079
a(V\u9eb6
I2
tp6080
a(V\u55bc
I2
tp6081
a(V\u9353
I2
tp6082
a(V\u9297
I2
tp6083
a(V\u5b32
I2
tp6084
a(V\u683b
I2
tp6085
a(V\u64b9
I2
tp6086
a(V\u5886
I2
tp6087
a(V\u93c1
I2
tp6088
a(V\u95c5
I2
tp6089
a(V\u9e88
I2
tp6090
a(V\u6a3b
I2
tp6091
a(V\u5545
I2
tp6092
a(V\u912c
I2
tp6093
a(V\u80cd
I2
tp6094
a(V\u9380
I2
tp6095
a(V\u5f9d
I2
tp6096
a(V\u6828
I2
tp6097
a(V\u9a34
I2
tp6098
a(V\u8e3c
I2
tp6099
a(V\u8762
I2
tp6100
a(V\u9e47
I2
tp6101
a(V\u59de
I2
tp6102
a(V\u4f27
I2
tp6103
a(V\u57ac
I2
tp6104
a(V\u73c4
I2
tp6105
a(V\u85e0
I2
tp6106
a(V\u82a3
I2
tp6107
a(V\u5cc7
I2
tp6108
a(V\u96eb
I2
tp6109
a(V\u64cc
I2
tp6110
a(V\u6b69
I2
tp6111
a(V\u678b
I2
tp6112
a(V\u86b6
I2
tp6113
a(V\u525c
I2
tp6114
a(V\u9880
I2
tp6115
a(V\u73f2
I2
tp6116
a(V\u960a
I2
tp6117
a(V\u833c
I2
tp6118
a(V\u673f
I2
tp6119
a(V\u61d0
I2
tp6120
a(V\u72f2
I2
tp6121
a(V\u5f2e
I2
tp6122
a(V\u61bd
I2
tp6123
a(V\u55f5
I2
tp6124
a(V\u9371
I2
tp6125
a(V\u6793
I2
tp6126
a(V\u55b4
I2
tp6127
a(V\u5cda
I2
tp6128
a(V\u5d6f
I2
tp6129
a(V\u836a
I2
tp6130
a(V\u55f1
I2
tp6131
a(V\u9571
I2
tp6132
a(V\u877d
I2
tp6133
a(V\u6193
I2
tp6134
a(V\u7446
I2
tp6135
a(V\u677c
I2
tp6136
a(V\u951d
I2
tp6137
a(V\u657c
I2
tp6138
a(V\u7f2b
I2
tp6139
a(V\u94b2
I2
tp6140
a(V\u7fc0
I2
tp6141
a(V\u9e54
I2
tp6142
a(V\u6217
I2
tp6143
a(V\u7bbc
I2
tp6144
a(V\u7a10
I2
tp6145
a(V\u993d
I2
tp6146
a(V\u80ec
I2
tp6147
a(V\u866e
I2
tp6148
a(V\u5261
I2
tp6149
a(V\u831a
I2
tp6150
a(V\u920f
I2
tp6151
a(V\u9f3d
I2
tp6152
a(V\u968d
I2
tp6153
a(V\u73cf
I2
tp6154
a(V\u7364
I2
tp6155
a(V\u5aaa
I2
tp6156
a(V\u7fbc
I2
tp6157
a(V\u5461
I2
tp6158
a(V\u6600
I2
tp6159
a(V\u5620
I2
tp6160
a(V\u5024
I2
tp6161
a(V\u960b
I2
tp6162
a(V\u666b
I2
tp6163
a(V\u5b93
I2
tp6164
a(V\u9895
I2
tp6165
a(V\u5d4e
I2
tp6166
a(V\u7468
I2
tp6167
a(V\u678a
I2
tp6168
a(V\u51a6
I2
tp6169
a(V\u686b
I2
tp6170
a(V\u635c
I2
tp6171
a(V\u7568
I2
tp6172
a(V\u9cce
I2
tp6173
a(V\u8535
I2
tp6174
a(V\u543f
I2
tp6175
a(V\u6bd6
I2
tp6176
a(V\u67de
I2
tp6177
a(V\u5b61
I2
tp6178
a(V\u8c85
I2
tp6179
a(V\u790c
I2
tp6180
a(V\u9554
I2
tp6181
a(V\u9ae1
I2
tp6182
a(V\u96e9
I2
tp6183
a(V\u7e8e
I2
tp6184
a(V\u8957
I2
tp6185
a(V\u9167
I2
tp6186
a(V\u7d36
I2
tp6187
a(V\u8c40
I2
tp6188
a(V\u6b45
I2
tp6189
a(V\u801e
I2
tp6190
a(V\u71d3
I2
tp6191
a(V\u57e7
I2
tp6192
a(V\u5ea2
I2
tp6193
a(V\u8e2d
I2
tp6194
a(V\u96d2
I2
tp6195
a(V\u737f
I2
tp6196
a(V\u5b4e
I2
tp6197
a(V\u8572
I2
tp6198
a(V\u6c17
I2
tp6199
a(V\u953d
I2
tp6200
a(V\u7de2
I2
tp6201
a(V\u6e6b
I2
tp6202
a(V\u9af8
I2
tp6203
a(V\u65c7
I2
tp6204
a(V\u9ee1
I2
tp6205
a(V\u9f0b
I2
tp6206
a(V\u9a39
I2
tp6207
a(V\u94d2
I2
tp6208
a(V\u7d77
I2
tp6209
a(V\u971a
I2
tp6210
a(V\u781b
I2
tp6211
a(V\u9e5f
I2
tp6212
a(V\u69e6
I2
tp6213
a(V\u6910
I2
tp6214
a(V\u94d9
I2
tp6215
a(V\u791b
I2
tp6216
a(V\u857a
I2
tp6217
a(V\u9485
I2
tp6218
a(V\u6ea9
I2
tp6219
a(V\u7832
I2
tp6220
a(V\u8dbf
I2
tp6221
a(V\u795c
I2
tp6222
a(V\u58f2
I2
tp6223
a(V\u7f9d
I2
tp6224
a(V\u94ab
I2
tp6225
a(V\u5909
I2
tp6226
a(V\u73da
I2
tp6227
a(V\u9ab3
I2
tp6228
a(V\u88bf
I2
tp6229
a(V\u93d9
I2
tp6230
a(V\u8d3d
I2
tp6231
a(V\u6aa9
I2
tp6232
a(V\u942d
I2
tp6233
a(V\u9e31
I2
tp6234
a(V\u995f
I2
tp6235
a(V\u7b82
I2
tp6236
a(V\u79d6
I2
tp6237
a(V\u7fda
I2
tp6238
a(V\u965f
I2
tp6239
a(V\u941e
I2
tp6240
a(V\u9cd9
I2
tp6241
a(V\u8df8
I2
tp6242
a(V\u5e83
I2
tp6243
a(V\u680c
I2
tp6244
a(V\u705c
I2
tp6245
a(V\u7386
I2
tp6246
a(V\u5a2b
I2
tp6247
a(V\u7673
I2
tp6248
a(V\u6877
I2
tp6249
a(V\u9c85
I2
tp6250
a(V\u7e99
I2
tp6251
a(V\u955f
I2
tp6252
a(V\u911e
I2
tp6253
a(V\u792e
I2
tp6254
a(V\u5470
I2
tp6255
a(V\u9335
I2
tp6256
a(V\u9e57
I2
tp6257
a(V\u7a6f
I2
tp6258
a(V\u66fd
I2
tp6259
a(V\u6268
I2
tp6260
a(V\u761b
I2
tp6261
a(V\u6427
I2
tp6262
a(V\u7945
I2
tp6263
a(V\u5d6c
I2
tp6264
a(V\u97a5
I1
tp6265
a(V\u84c3
I1
tp6266
a(V\u5fd5
I1
tp6267
a(V\u65d9
I1
tp6268
a(V\u5966
I1
tp6269
a(V\u7d7e
I1
tp6270
a(V\u6498
I1
tp6271
a(V\u632d
I1
tp6272
a(V\u5dbe
I1
tp6273
a(V\u69c6
I1
tp6274
a(V\u6257
I1
tp6275
a(V\u685b
I1
tp6276
a(V\u99e6
I1
tp6277
a(V\u74f8
I1
tp6278
a(V\u6685
I1
tp6279
a(V\u6a72
I1
tp6280
a(V\u94f9
I1
tp6281
a(V\u948e
I1
tp6282
a(V\u9a92
I1
tp6283
a(V\u8041
I1
tp6284
a(V\u6f5f
I1
tp6285
a(V\u75f8
I1
tp6286
a(V\u718d
I1
tp6287
a(V\u9c14
I1
tp6288
a(V\u872e
I1
tp6289
a(V\u94cf
I1
tp6290
a(V\u67d9
I1
tp6291
a(V\u4f5e
I1
tp6292
a(V\u4ef3
I1
tp6293
a(V\u689c
I1
tp6294
a(V\u889d
I1
tp6295
a(V\u6e1e
I1
tp6296
a(V\u59a7
I1
tp6297
a(V\u63ab
I1
tp6298
a(V\u71b7
I1
tp6299
a(V\u593c
I1
tp6300
a(V\u6544
I1
tp6301
a(V\u50cd
I1
tp6302
a(V\u5ad1
I1
tp6303
a(V\u8758
I1
tp6304
a(V\u74e5
I1
tp6305
a(V\u9564
I1
tp6306
a(V\u6907
I1
tp6307
a(V\u730b
I1
tp6308
a(V\u750f
I1
tp6309
a(V\u73a0
I1
tp6310
a(V\u7639
I1
tp6311
a(V\u5ebe
I1
tp6312
a(V\u8204
I1
tp6313
a(V\u778d
I1
tp6314
a(V\u960c
I1
tp6315
a(V\u8f9d
I1
tp6316
a(V\u7cbb
I1
tp6317
a(V\u933a
I1
tp6318
a(V\u5dd1
I1
tp6319
a(V\u7c50
I1
tp6320
a(V\u5762
I1
tp6321
a(V\u8df1
I1
tp6322
a(V\u6f72
I1
tp6323
a(V\u740b
I1
tp6324
a(V\u918e
I1
tp6325
a(V\u78a8
I1
tp6326
a(V\u6657
I1
tp6327
a(V\u83da
I1
tp6328
a(V\u77b7
I1
tp6329
a(V\u6948
I1
tp6330
a(V\u74e1
I1
tp6331
a(V\u72e5
I1
tp6332
a(V\u5c66
I1
tp6333
a(V\u730f
I1
tp6334
a(V\u9123
I1
tp6335
a(V\u554b
I1
tp6336
a(V\u55e0
I1
tp6337
a(V\u758d
I1
tp6338
a(V\u90cf
I1
tp6339
a(V\u898a
I1
tp6340
a(V\u7a13
I1
tp6341
a(V\u5b29
I1
tp6342
a(V\u7aa8
I1
tp6343
a(V\u7263
I1
tp6344
a(V\u5ae8
I1
tp6345
a(V\u7cfc
I1
tp6346
a(V\u601a
I1
tp6347
a(V\u96a1
I1
tp6348
a(V\u7e26
I1
tp6349
a(V\u782a
I1
tp6350
a(V\u6303
I1
tp6351
a(V\u8e86
I1
tp6352
a(V\u558c
I1
tp6353
a(V\u9323
I1
tp6354
a(V\u5025
I1
tp6355
a(V\u9d27
I1
tp6356
a(V\u7ba8
I1
tp6357
a(V\u8045
I1
tp6358
a(V\u7363
I1
tp6359
a(V\u52a7
I1
tp6360
a(V\u9f3a
I1
tp6361
a(V\u5bcd
I1
tp6362
a(V\u57d5
I1
tp6363
a(V\u75e9
I1
tp6364
a(V\u87f5
I1
tp6365
a(V\u5af7
I1
tp6366
a(V\u9392
I1
tp6367
a(V\u6c98
I1
tp6368
a(V\u59b6
I1
tp6369
a(V\u733d
I1
tp6370
a(V\u5e4f
I1
tp6371
a(V\u98a1
I1
tp6372
a(V\u9e3a
I1
tp6373
a(V\u6940
I1
tp6374
a(V\u5acd
I1
tp6375
a(V\u6c6e
I1
tp6376
a(V\u790b
I1
tp6377
a(V\u81b0
I1
tp6378
a(V\u66ca
I1
tp6379
a(V\u59e0
I1
tp6380
a(V\u7367
I1
tp6381
a(V\u7595
I1
tp6382
a(V\u671e
I1
tp6383
a(V\u7922
I1
tp6384
a(V\u752a
I1
tp6385
a(V\u66b3
I1
tp6386
a(V\u74bf
I1
tp6387
a(V\u55d5
I1
tp6388
a(V\u6007
I1
tp6389
a(V\u6e98
I1
tp6390
a(V\u713d
I1
tp6391
a(V\u9514
I1
tp6392
a(V\u6c1a
I1
tp6393
a(V\u661e
I1
tp6394
a(V\u9ca5
I1
tp6395
a(V\u67b3
I1
tp6396
a(V\u9dcf
I1
tp6397
a(V\u52d1
I1
tp6398
a(V\u76e9
I1
tp6399
a(V\u9ef9
I1
tp6400
a(V\u55ff
I1
tp6401
a(V\u5390
I1
tp6402
a(V\u7713
I1
tp6403
a(V\u619c
I1
tp6404
a(V\u5d4f
I1
tp6405
a(V\u8a04
I1
tp6406
a(V\u7395
I1
tp6407
a(V\u8999
I1
tp6408
a(V\u91a9
I1
tp6409
a(V\u8732
I1
tp6410
a(V\u913e
I1
tp6411
a(V\u9ccb
I1
tp6412
a(V\u7e4c
I1
tp6413
a(V\u90d3
I1
tp6414
a(V\u696e
I1
tp6415
a(V\u6772
I1
tp6416
a(V\u97fd
I1
tp6417
a(V\u8f82
I1
tp6418
a(V\u9823
I1
tp6419
a(V\u9627
I1
tp6420
a(V\u70a8
I1
tp6421
a(V\u6335
I1
tp6422
a(V\u8149
I1
tp6423
a(V\u9f4d
I1
tp6424
a(V\u9355
I1
tp6425
a(V\u5ce0
I1
tp6426
a(V\u9e77
I1
tp6427
a(V\u59a3
I1
tp6428
a(V\u90a9
I1
tp6429
a(V\u87c7
I1
tp6430
a(V\u5ecd
I1
tp6431
a(V\u7550
I1
tp6432
a(V\u68d9
I1
tp6433
a(V\u8958
I1
tp6434
a(V\u84f1
I1
tp6435
a(V\u98f9
I1
tp6436
a(V\u6903
I1
tp6437
a(V\u5c21
I1
tp6438
a(V\u763d
I1
tp6439
a(V\u97bc
I1
tp6440
a(V\u62ca
I1
tp6441
a(V\u6f57
I1
tp6442
a(V\u8cd6
I1
tp6443
a(V\u5be4
I1
tp6444
a(V\u957b
I1
tp6445
a(V\u7d8d
I1
tp6446
a(V\u5aa3
I1
tp6447
a(V\u8b2e
I1
tp6448
a(V\u51d5
I1
tp6449
a(V\u9268
I1
tp6450
a(V\u861b
I1
tp6451
a(V\u649c
I1
tp6452
a(V\u8f41
I1
tp6453
a(V\u6dc2
I1
tp6454
a(V\u6e81
I1
tp6455
a(V\u8f00
I1
tp6456
a(V\u8308
I1
tp6457
a(V\u7c8d
I1
tp6458
a(V\u681a
I1
tp6459
a(V\u621e
I1
tp6460
a(V\u9ea1
I1
tp6461
a(V\u7db7
I1
tp6462
a(V\u9e36
I1
tp6463
a(V\u553c
I1
tp6464
a(V\u6ad9
I1
tp6465
a(V\u9964
I1
tp6466
a(V\u9368
I1
tp6467
a(V\u4feb
I1
tp6468
a(V\u4f80
I1
tp6469
a(V\u6507
I1
tp6470
a(V\u8686
I1
tp6471
a(V\u5d8c
I1
tp6472
a(V\u5825
I1
tp6473
a(V\u9527
I1
tp6474
a(V\u6c2d
I1
tp6475
a(V\u6cc2
I1
tp6476
a(V\u7ace
I1
tp6477
a(V\u9651
I1
tp6478
a(V\u59e4
I1
tp6479
a(V\u5906
I1
tp6480
a(V\u638d
I1
tp6481
a(V\u5297
I1
tp6482
a(V\u6322
I1
tp6483
a(V\u76af
I1
tp6484
a(V\u5e34
I1
tp6485
a(V\u62b7
I1
tp6486
a(V\u624c
I1
tp6487
a(V\u61e1
I1
tp6488
a(V\u56ef
I1
tp6489
a(V\u5519
I1
tp6490
a(V\u9745
I1
tp6491
a(V\u834d
I1
tp6492
a(V\u91d6
I1
tp6493
a(V\u966f
I1
tp6494
a(V\u628d
I1
tp6495
a(V\u7016
I1
tp6496
a(V\u5f9f
I1
tp6497
a(V\u8dd3
I1
tp6498
a(V\u74d9
I1
tp6499
a(V\u67a4
I1
tp6500
a(V\u6439
I1
tp6501
a(V\u6ad2
I1
tp6502
a(V\u55d8
I1
tp6503
a(V\u5bdc
I1
tp6504
a(V\u82e2
I1
tp6505
a(V\u8eea
I1
tp6506
a(V\u976f
I1
tp6507
a(V\u5b06
I1
tp6508
a(V\u7f1e
I1
tp6509
a(V\u83a1
I1
tp6510
a(V\u5fc9
I1
tp6511
a(V\u657a
I1
tp6512
a(V\u6f7e
I1
tp6513
a(V\u7807
I1
tp6514
a(V\u9b86
I1
tp6515
a(V\u620b
I1
tp6516
a(V\u9a1b
I1
tp6517
a(V\u9545
I1
tp6518
a(V\u5847
I1
tp6519
a(V\u7057
I1
tp6520
a(V\u56d8
I1
tp6521
a(V\u95da
I1
tp6522
a(V\u5d75
I1
tp6523
a(V\u7216
I1
tp6524
a(V\u5d9f
I1
tp6525
a(V\u8e3e
I1
tp6526
a(V\u6d54
I1
tp6527
a(V\u78dd
I1
tp6528
a(V\u7872
I1
tp6529
a(V\u9cf5
I1
tp6530
a(V\u9c8a
I1
tp6531
a(V\u8723
I1
tp6532
a(V\u92d6
I1
tp6533
a(V\u7d5f
I1
tp6534
a(V\u9400
I1
tp6535
a(V\u5702
I1
tp6536
a(V\u5d06
I1
tp6537
a(V\u678d
I1
tp6538
a(V\u5697
I1
tp6539
a(V\u5a9f
I1
tp6540
a(V\u5c30
I1
tp6541
a(V\u66b7
I1
tp6542
a(V\u55c1
I1
tp6543
a(V\u7fdd
I1
tp6544
a(V\u5888
I1
tp6545
a(V\u7098
I1
tp6546
a(V\u64a0
I1
tp6547
a(V\u8e27
I1
tp6548
a(V\u772d
I1
tp6549
a(V\u51ae
I1
tp6550
a(V\u9cb0
I1
tp6551
a(V\u5e47
I1
tp6552
a(V\u8bea
I1
tp6553
a(V\u926f
I1
tp6554
a(V\u5d71
I1
tp6555
a(V\u4f7d
I1
tp6556
a(V\u9908
I1
tp6557
a(V\u9099
I1
tp6558
a(V\u883e
I1
tp6559
a(V\u85cb
I1
tp6560
a(V\u687e
I1
tp6561
a(V\u9c86
I1
tp6562
a(V\u7198
I1
tp6563
a(V\u6e3d
I1
tp6564
a(V\u8fbc
I1
tp6565
a(V\u94d6
I1
tp6566
a(V\u8aea
I1
tp6567
a(V\u5497
I1
tp6568
a(V\u9cc7
I1
tp6569
a(V\u6be9
I1
tp6570
a(V\u9f86
I1
tp6571
a(V\u7c9c
I1
tp6572
a(V\u66a0
I1
tp6573
a(V\u60a4
I1
tp6574
a(V\u98b4
I1
tp6575
a(V\u6339
I1
tp6576
a(V\u7fc6
I1
tp6577
a(V\u9b49
I1
tp6578
a(V\u97d6
I1
tp6579
a(V\u6895
I1
tp6580
a(V\u7616
I1
tp6581
a(V\u9c9d
I1
tp6582
a(V\u7a1e
I1
tp6583
a(V\u86a1
I1
tp6584
a(V\u6f50
I1
tp6585
a(V\u8164
I1
tp6586
a(V\u9045
I1
tp6587
a(V\u6d67
I1
tp6588
a(V\u546d
I1
tp6589
a(V\u75ec
I1
tp6590
a(V\u63f8
I1
tp6591
a(V\u570a
I1
tp6592
a(V\u6126
I1
tp6593
a(V\u7e44
I1
tp6594
a(V\u55c9
I1
tp6595
a(V\u5f5a
I1
tp6596
a(V\u8468
I1
tp6597
a(V\u83fd
I1
tp6598
a(V\u7c03
I1
tp6599
a(V\u9b82
I1
tp6600
a(V\u5c43
I1
tp6601
a(V\u87ea
I1
tp6602
a(V\u9900
I1
tp6603
a(V\u8b0c
I1
tp6604
a(V\u9c99
I1
tp6605
a(V\u929d
I1
tp6606
a(V\u88a1
I1
tp6607
a(V\u84a9
I1
tp6608
a(V\u662a
I1
tp6609
a(V\u8e3a
I1
tp6610
a(V\u843e
I1
tp6611
a(V\u89cb
I1
tp6612
a(V\u8fcf
I1
tp6613
a(V\u6150
I1
tp6614
a(V\u545e
I1
tp6615
a(V\u6e7a
I1
tp6616
a(V\u9086
I1
tp6617
a(V\u9b17
I1
tp6618
a(V\u739c
I1
tp6619
a(V\u97b4
I1
tp6620
a(V\u7b57
I1
tp6621
a(V\u98d6
I1
tp6622
a(V\u4fe4
I1
tp6623
a(V\u86ea
I1
tp6624
a(V\u7d85
I1
tp6625
a(V\u7789
I1
tp6626
a(V\u7b16
I1
tp6627
a(V\u549f
I1
tp6628
a(V\u6326
I1
tp6629
a(V\u87a9
I1
tp6630
a(V\u9f2e
I1
tp6631
a(V\u57c9
I1
tp6632
a(V\u86d3
I1
tp6633
a(V\u56f3
I1
tp6634
a(V\u9982
I1
tp6635
a(V\u6aa0
I1
tp6636
a(V\u792d
I1
tp6637
a(V\u79c2
I1
tp6638
a(V\u89e2
I1
tp6639
a(V\u83e6
I1
tp6640
a(V\u9708
I1
tp6641
a(V\u9e99
I1
tp6642
a(V\u86a9
I1
tp6643
a(V\u87d3
I1
tp6644
a(V\u6554
I1
tp6645
a(V\u5a56
I1
tp6646
a(V\u9f58
I1
tp6647
a(V\u565e
I1
tp6648
a(V\u6713
I1
tp6649
a(V\u7f98
I1
tp6650
a(V\u67a8
I1
tp6651
a(V\u78c2
I1
tp6652
a(V\u6ff8
I1
tp6653
a(V\u7b85
I1
tp6654
a(V\u7b1a
I1
tp6655
a(V\u6eb7
I1
tp6656
a(V\u8d36
I1
tp6657
a(V\u7c40
I1
tp6658
a(V\u8c60
I1
tp6659
a(V\u7772
I1
tp6660
a(V\u5a84
I1
tp6661
a(V\u5088
I1
tp6662
a(V\u6c0b
I1
tp6663
a(V\u6939
I1
tp6664
a(V\u5843
I1
tp6665
a(V\u85e6
I1
tp6666
a(V\u72f4
I1
tp6667
a(V\u7c81
I1
tp6668
a(V\u9b04
I1
tp6669
a(V\u9108
I1
tp6670
a(V\u8510
I1
tp6671
a(V\u7c16
I1
tp6672
a(V\u6550
I1
tp6673
a(V\u78d9
I1
tp6674
a(V\u8b64
I1
tp6675
a(V\u9f17
I1
tp6676
a(V\u663d
I1
tp6677
a(V\u755b
I1
tp6678
a(V\u69f8
I1
tp6679
a(V\u569b
I1
tp6680
a(V\u612a
I1
tp6681
a(V\u66bb
I1
tp6682
a(V\u7e40
I1
tp6683
a(V\u94c7
I1
tp6684
a(V\u8e60
I1
tp6685
a(V\u8864
I1
tp6686
a(V\u8268
I1
tp6687
a(V\u9786
I1
tp6688
a(V\u6e0b
I1
tp6689
a(V\u918a
I1
tp6690
a(V\u9cac
I1
tp6691
a(V\u8d4d
I1
tp6692
a(V\u54dc
I1
tp6693
a(V\u4ee0
I1
tp6694
a(V\u6c8d
I1
tp6695
a(V\u5134
I1
tp6696
a(V\u7944
I1
tp6697
a(V\u89cf
I1
tp6698
a(V\u6e76
I1
tp6699
a(V\u687a
I1
tp6700
a(V\u9c82
I1
tp6701
a(V\u4e21
I1
tp6702
a(V\u91b4
I1
tp6703
a(V\u9e41
I1
tp6704
a(V\u92de
I1
tp6705
a(V\u6bf8
I1
tp6706
a(V\u65fc
I1
tp6707
a(V\u6906
I1
tp6708
a(V\u750e
I1
tp6709
a(V\u8342
I1
tp6710
a(V\u6dc9
I1
tp6711
a(V\u72f7
I1
tp6712
a(V\u9478
I1
tp6713
a(V\u560f
I1
tp6714
a(V\u6b1d
I1
tp6715
a(V\u5ca8
I1
tp6716
a(V\u71b6
I1
tp6717
a(V\u9161
I1
tp6718
a(V\u636d
I1
tp6719
a(V\u6971
I1
tp6720
a(V\u6f75
I1
tp6721
a(V\u4ef4
I1
tp6722
a(V\u7579
I1
tp6723
a(V\u7ba7
I1
tp6724
a(V\u632c
I1
tp6725
a(V\u5fbf
I1
tp6726
a(V\u60c1
I1
tp6727
a(V\u72cd
I1
tp6728
a(V\u534c
I1
tp6729
a(V\u5da8
I1
tp6730
a(V\u6bdc
I1
tp6731
a(V\u5b67
I1
tp6732
a(V\u8af2
I1
tp6733
a(V\u8683
I1
tp6734
a(V\u6097
I1
tp6735
a(V\u5d2a
I1
tp6736
a(V\u99bd
I1
tp6737
a(V\u7dd5
I1
tp6738
a(V\u6356
I1
tp6739
a(V\u62eb
I1
tp6740
a(V\u7d6a
I1
tp6741
a(V\u9037
I1
tp6742
a(V\u9c3f
I1
tp6743
a(V\u9ad0
I1
tp6744
a(V\u9565
I1
tp6745
a(V\u5867
I1
tp6746
a(V\u7ee8
I1
tp6747
a(V\u98bd
I1
tp6748
a(V\u6ec9
I1
tp6749
a(V\u645a
I1
tp6750
a(V\u52e1
I1
tp6751
a(V\u97e3
I1
tp6752
a(V\u7b90
I1
tp6753
a(V\u9caa
I1
tp6754
a(V\u6947
I1
tp6755
a(V\u58d2
I1
tp6756
a(V\u9261
I1
tp6757
a(V\u948b
I1
tp6758
a(V\u5d26
I1
tp6759
a(V\u5abf
I1
tp6760
a(V\u7762
I1
tp6761
a(V\u59e9
I1
tp6762
a(V\u8a74
I1
tp6763
a(V\u6480
I1
tp6764
a(V\u520f
I1
tp6765
a(V\u7c90
I1
tp6766
a(V\u842b
I1
tp6767
a(V\u6fb2
I1
tp6768
a(V\u5139
I1
tp6769
a(V\u8159
I1
tp6770
a(V\u95f6
I1
tp6771
a(V\u7179
I1
tp6772
a(V\u568d
I1
tp6773
a(V\u9993
I1
tp6774
a(V\u71a3
I1
tp6775
a(V\u8cb1
I1
tp6776
a(V\u6d30
I1
tp6777
a(V\u7a6a
I1
tp6778
a(V\u5476
I1
tp6779
a(V\u8401
I1
tp6780
a(V\u530f
I1
tp6781
a(V\u9c11
I1
tp6782
a(V\u5913
I1
tp6783
a(V\u7225
I1
tp6784
a(V\u9aaa
I1
tp6785
a(V\u72ba
I1
tp6786
a(V\u9265
I1
tp6787
a(V\u6834
I1
tp6788
a(V\u58bf
I1
tp6789
a(V\u79d5
I1
tp6790
a(V\u796a
I1
tp6791
a(V\u8701
I1
tp6792
a(V\u6680
I1
tp6793
a(V\u8b09
I1
tp6794
a(V\u950d
I1
tp6795
a(V\u9ed0
I1
tp6796
a(V\u98d4
I1
tp6797
a(V\u7d7d
I1
tp6798
a(V\u8d87
I1
tp6799
a(V\u6e06
I1
tp6800
a(V\u5422
I1
tp6801
a(V\u88b5
I1
tp6802
a(V\u786a
I1
tp6803
a(V\u75f7
I1
tp6804
a(V\u9d7c
I1
tp6805
a(V\u8601
I1
tp6806
a(V\u6780
I1
tp6807
a(V\u6343
I1
tp6808
a(V\u9a69
I1
tp6809
a(V\u6e71
I1
tp6810
a(V\u9afe
I1
tp6811
a(V\u609b
I1
tp6812
a(V\u6fc5
I1
tp6813
a(V\u9d4e
I1
tp6814
a(V\u6f5a
I1
tp6815
a(V\u5fe5
I1
tp6816
a(V\u76ff
I1
tp6817
a(V\u580b
I1
tp6818
a(V\u6c43
I1
tp6819
a(V\u90d0
I1
tp6820
a(V\u737d
I1
tp6821
a(V\u95fe
I1
tp6822
a(V\u73a7
I1
tp6823
a(V\u562a
I1
tp6824
a(V\u86b5
I1
tp6825
a(V\u864a
I1
tp6826
a(V\u70d1
I1
tp6827
a(V\u5150
I1
tp6828
a(V\u9d78
I1
tp6829
a(V\u6980
I1
tp6830
a(V\u8409
I1
tp6831
a(V\u590b
I1
tp6832
a(V\u59a0
I1
tp6833
a(V\u9861
I1
tp6834
a(V\u6675
I1
tp6835
a(V\u9693
I1
tp6836
a(V\u7112
I1
tp6837
a(V\u70a7
I1
tp6838
a(V\u5326
I1
tp6839
a(V\u85b5
I1
tp6840
a(V\u72fb
I1
tp6841
a(V\u9515
I1
tp6842
a(V\u8c2f
I1
tp6843
a(V\u7ce4
I1
tp6844
a(V\u6802
I1
tp6845
a(V\u811c
I1
tp6846
a(V\u55bf
I1
tp6847
a(V\u5350
I1
tp6848
a(V\u6a56
I1
tp6849
a(V\u7390
I1
tp6850
a(V\u8a96
I1
tp6851
a(V\u869e
I1
tp6852
a(V\u933b
I1
tp6853
a(V\u7753
I1
tp6854
a(V\u7be0
I1
tp6855
a(V\u6475
I1
tp6856
a(V\u8687
I1
tp6857
a(V\u9c8b
I1
tp6858
a(V\u649b
I1
tp6859
a(V\u629f
I1
tp6860
a(V\u9028
I1
tp6861
a(V\u6dc1
I1
tp6862
a(V\u96e7
I1
tp6863
a(V\u8274
I1
tp6864
a(V\u7a4f
I1
tp6865
a(V\u59ce
I1
tp6866
a(V\u7ae4
I1
tp6867
a(V\u7979
I1
tp6868
a(V\u9bfa
I1
tp6869
a(V\u780e
I1
tp6870
a(V\u8ead
I1
tp6871
a(V\u74d1
I1
tp6872
a(V\u7466
I1
tp6873
a(V\u61f3
I1
tp6874
a(V\u507e
I1
tp6875
a(V\u9411
I1
tp6876
a(V\u5113
I1
tp6877
a(V\u661d
I1
tp6878
a(V\u9f37
I1
tp6879
a(V\u6747
I1
tp6880
a(V\u56d2
I1
tp6881
a(V\u88ee
I1
tp6882
a(V\u7879
I1
tp6883
a(V\u90fe
I1
tp6884
a(V\u50bf
I1
tp6885
a(V\u8746
I1
tp6886
a(V\u5650
I1
tp6887
a(V\u9ae3
I1
tp6888
a(V\u716a
I1
tp6889
a(V\u68ef
I1
tp6890
a(V\u7925
I1
tp6891
a(V\u8e2b
I1
tp6892
a(V\u88c4
I1
tp6893
a(V\u78e4
I1
tp6894
a(V\u600a
I1
tp6895
a(V\u6d97
I1
tp6896
a(V\u7b38
I1
tp6897
a(V\u4f40
I1
tp6898
a(V\u87db
I1
tp6899
a(V\u9be3
I1
tp6900
a(V\u95e7
I1
tp6901
a(V\u7666
I1
tp6902
a(V\u63f3
I1
tp6903
a(V\u9b78
I1
tp6904
a(V\u7790
I1
tp6905
a(V\u59a4
I1
tp6906
a(V\u8f2b
I1
tp6907
a(V\u913f
I1
tp6908
a(V\u9e61
I1
tp6909
a(V\u6075
I1
tp6910
a(V\u7f0a
I1
tp6911
a(V\u7297
I1
tp6912
a(V\u8624
I1
tp6913
a(V\u9946
I1
tp6914
a(V\u69d1
I1
tp6915
a(V\u55d9
I1
tp6916
a(V\u84e3
I1
tp6917
a(V\u8478
I1
tp6918
a(V\u7080
I1
tp6919
a(V\u6890
I1
tp6920
a(V\u7adc
I1
tp6921
a(V\u7971
I1
tp6922
a(V\u5ef4
I1
tp6923
a(V\u5685
I1
tp6924
a(V\u7806
I1
tp6925
a(V\u9b1c
I1
tp6926
a(V\u65a3
I1
tp6927
a(V\u6ba7
I1
tp6928
a(V\u5d48
I1
tp6929
a(V\u6262
I1
tp6930
a(V\u8578
I1
tp6931
a(V\u9c9e
I1
tp6932
a(V\u5f5f
I1
tp6933
a(V\u5f1e
I1
tp6934
a(V\u702c
I1
tp6935
a(V\u7a30
I1
tp6936
a(V\u5240
I1
tp6937
a(V\u88e7
I1
tp6938
a(V\u576e
I1
tp6939
a(V\u8678
I1
tp6940
a(V\u7484
I1
tp6941
a(V\u77ae
I1
tp6942
a(V\u51c2
I1
tp6943
a(V\u9ec8
I1
tp6944
a(V\u5c5f
I1
tp6945
a(V\u50ec
I1
tp6946
a(V\u5af0
I1
tp6947
a(V\u697d
I1
tp6948
a(V\u8ffe
I1
tp6949
a(V\u5485
I1
tp6950
a(V\u5e89
I1
tp6951
a(V\u5216
I1
tp6952
a(V\u69a7
I1
tp6953
a(V\u53ab
I1
tp6954
a(V\u9cb5
I1
tp6955
a(V\u693c
I1
tp6956
a(V\u6a66
I1
tp6957
a(V\u6dff
I1
tp6958
a(V\u6425
I1
tp6959
a(V\u93c0
I1
tp6960
a(V\u79dc
I1
tp6961
a(V\u63e0
I1
tp6962
a(V\u7c75
I1
tp6963
a(V\u828f
I1
tp6964
a(V\u52af
I1
tp6965
a(V\u73c5
I1
tp6966
a(V\u80e3
I1
tp6967
a(V\u8d11
I1
tp6968
a(V\u9596
I1
tp6969
a(V\u71ae
I1
tp6970
a(V\u8a3f
I1
tp6971
a(V\u69be
I1
tp6972
a(V\u5a5f
I1
tp6973
a(V\u8561
I1
tp6974
a(V\u8365
I1
tp6975
a(V\u68e8
I1
tp6976
a(V\u776d
I1
tp6977
a(V\u83fa
I1
tp6978
a(V\u4efc
I1
tp6979
a(V\u5285
I1
tp6980
a(V\u9f1c
I1
tp6981
a(V\u96ad
I1
tp6982
a(V\u72c5
I1
tp6983
a(V\u6cd1
I1
tp6984
a(V\u50d9
I1
tp6985
a(V\u785e
I1
tp6986
a(V\u6d90
I1
tp6987
a(V\u6b94
I1
tp6988
a(V\u7019
I1
tp6989
a(V\u5198
I1
tp6990
a(V\u86a2
I1
tp6991
a(V\u8ca6
I1
tp6992
a(V\u62ba
I1
tp6993
a(V\u95c0
I1
tp6994
a(V\u7a75
I1
tp6995
a(V\u84f6
I1
tp6996
a(V\u511a
I1
tp6997
a(V\u56ab
I1
tp6998
a(V\u4ebb
I1
tp6999
a(V\u68ff
I1
tp7000
a(V\u5935
I1
tp7001
a(V\u8ed0
I1
tp7002
a(V\u8b69
I1
tp7003
a(V\u756d
I1
tp7004
a(V\u6379
I1
tp7005
a(V\u5a89
I1
tp7006
a(V\u76c1
I1
tp7007
a(V\u984a
I1
tp7008
a(V\u824e
I1
tp7009
a(V\u686a
I1
tp7010
a(V\u5c72
I1
tp7011
a(V\u909a
I1
tp7012
a(V\u7c1d
I1
tp7013
a(V\u6621
I1
tp7014
a(V\u912f
I1
tp7015
a(V\u9b33
I1
tp7016
a(V\u9259
I1
tp7017
a(V\u7ddc
I1
tp7018
a(V\u6be8
I1
tp7019
a(V\u9c83
I1
tp7020
a(V\u709b
I1
tp7021
a(V\u5f1a
I1
tp7022
a(V\u921c
I1
tp7023
a(V\u8820
I1
tp7024
a(V\u62a7
I1
tp7025
a(V\u5735
I1
tp7026
a(V\u8a37
I1
tp7027
a(V\u50f0
I1
tp7028
a(V\u8f8f
I1
tp7029
a(V\u59ab
I1
tp7030
a(V\u6acd
I1
tp7031
a(V\u66d5
I1
tp7032
a(V\u5c6e
I1
tp7033
a(V\u8d78
I1
tp7034
a(V\u5d03
I1
tp7035
a(V\u7c19
I1
tp7036
a(V\u539c
I1
tp7037
a(V\u4fa4
I1
tp7038
a(V\u5031
I1
tp7039
a(V\u72b2
I1
tp7040
a(V\u925d
I1
tp7041
a(V\u73dc
I1
tp7042
a(V\u69e0
I1
tp7043
a(V\u7902
I1
tp7044
a(V\u901c
I1
tp7045
a(V\u93b1
I1
tp7046
a(V\u7230
I1
tp7047
a(V\u656a
I1
tp7048
a(V\u5172
I1
tp7049
a(V\u62fb
I1
tp7050
a(V\u807c
I1
tp7051
a(V\u9d05
I1
tp7052
a(V\u509c
I1
tp7053
a(V\u6729
I1
tp7054
a(V\u6dba
I1
tp7055
a(V\u6c4f
I1
tp7056
a(V\u545f
I1
tp7057
a(V\u5689
I1
tp7058
a(V\u7330
I1
tp7059
a(V\u7534
I1
tp7060
a(V\u613c
I1
tp7061
a(V\u9842
I1
tp7062
a(V\u9246
I1
tp7063
a(V\u76c9
I1
tp7064
a(V\u5ed9
I1
tp7065
a(V\u8fe3
I1
tp7066
a(V\u5072
I1
tp7067
a(V\u969e
I1
tp7068
a(V\u88a2
I1
tp7069
a(V\u9b2b
I1
tp7070
a(V\u7eae
I1
tp7071
a(V\u5231
I1
tp7072
a(V\u70b2
I1
tp7073
a(V\u8937
I1
tp7074
a(V\u6cba
I1
tp7075
a(V\u66be
I1
tp7076
a(V\u9eee
I1
tp7077
a(V\u7271
I1
tp7078
a(V\u90f2
I1
tp7079
a(V\u6712
I1
tp7080
a(V\u7e97
I1
tp7081
a(V\u68a3
I1
tp7082
a(V\u4f22
I1
tp7083
a(V\u8a24
I1
tp7084
a(V\u7d56
I1
tp7085
a(V\u867c
I1
tp7086
a(V\u7088
I1
tp7087
a(V\u6294
I1
tp7088
a(V\u83aa
I1
tp7089
a(V\u823f
I1
tp7090
a(V\u6a4f
I1
tp7091
a(V\u78d8
I1
tp7092
a(V\u6ce0
I1
tp7093
a(V\u8b8f
I1
tp7094
a(V\u6612
I1
tp7095
a(V\u7f97
I1
tp7096
a(V\u739f
I1
tp7097
a(V\u705e
I1
tp7098
a(V\u7bef
I1
tp7099
a(V\u9c96
I1
tp7100
a(V\u91c8
I1
tp7101
a(V\u8fcc
I1
tp7102
a(V\u5fec
I1
tp7103
a(V\u9a18
I1
tp7104
a(V\u8824
I1
tp7105
a(V\u7c2c
I1
tp7106
a(V\u61d5
I1
tp7107
a(V\u8ae3
I1
tp7108
a(V\u6766
I1
tp7109
a(V\u8711
I1
tp7110
a(V\u5a98
I1
tp7111
a(V\u63be
I1
tp7112
a(V\u51ca
I1
tp7113
a(V\u7c02
I1
tp7114
a(V\u7d97
I1
tp7115
a(V\u7ec1
I1
tp7116
a(V\u6ccd
I1
tp7117
a(V\u4ee1
I1
tp7118
a(V\u81d4
I1
tp7119
a(V\u8269
I1
tp7120
a(V\u63e8
I1
tp7121
a(V\u82fe
I1
tp7122
a(V\u768f
I1
tp7123
a(V\u7c93
I1
tp7124
a(V\u8297
I1
tp7125
a(V\u9aa7
I1
tp7126
a(V\u5136
I1
tp7127
a(V\u56cf
I1
tp7128
a(V\u68db
I1
tp7129
a(V\u7478
I1
tp7130
a(V\u5bfd
I1
tp7131
a(V\u8080
I1
tp7132
a(V\u6705
I1
tp7133
a(V\u4f8a
I1
tp7134
a(V\u7faa
I1
tp7135
a(V\u783b
I1
tp7136
a(V\u60c0
I1
tp7137
a(V\u9c53
I1
tp7138
a(V\u84d8
I1
tp7139
a(V\u7765
I1
tp7140
a(V\u836d
I1
tp7141
a(V\u6b1c
I1
tp7142
a(V\u7120
I1
tp7143
a(V\u7724
I1
tp7144
a(V\u9538
I1
tp7145
a(V\u7abd
I1
tp7146
a(V\u57cf
I1
tp7147
a(V\u63d7
I1
tp7148
a(V\u5523
I1
tp7149
a(V\u793b
I1
tp7150
a(V\u5bbc
I1
tp7151
a(V\u8b47
I1
tp7152
a(V\u6dc8
I1
tp7153
a(V\u974f
I1
tp7154
a(V\u58e6
I1
tp7155
a(V\u5eea
I1
tp7156
a(V\u597b
I1
tp7157
a(V\u748f
I1
tp7158
a(V\u8097
I1
tp7159
a(V\u5336
I1
tp7160
a(V\u77b9
I1
tp7161
a(V\u908c
I1
tp7162
a(V\u9a90
I1
tp7163
a(V\u71a2
I1
tp7164
a(V\u9f29
I1
tp7165
a(V\u8847
I1
tp7166
a(V\u5d55
I1
tp7167
a(V\u73f6
I1
tp7168
a(V\u6783
I1
tp7169
a(V\u8b9b
I1
tp7170
a(V\u691c
I1
tp7171
a(V\u812c
I1
tp7172
a(V\u6c4a
I1
tp7173
a(V\u55cf
I1
tp7174
a(V\u85ef
I1
tp7175
a(V\u6b70
I1
tp7176
a(V\u9bfb
I1
tp7177
a(V\u797c
I1
tp7178
a(V\u700d
I1
tp7179
a(V\u57b8
I1
tp7180
a(V\u504d
I1
tp7181
a(V\u954f
I1
tp7182
a(V\u5a51
I1
tp7183
a(V\u9679
I1
tp7184
a(V\u728f
I1
tp7185
a(V\u8697
I1
tp7186
a(V\u8c30
I1
tp7187
a(V\u4f32
I1
tp7188
a(V\u54cb
I1
tp7189
a(V\u8556
I1
tp7190
a(V\u895e
I1
tp7191
a(V\u9d66
I1
tp7192
a(V\u6305
I1
tp7193
a(V\u9c90
I1
tp7194
a(V\u7b15
I1
tp7195
a(V\u77a2
I1
tp7196
a(V\u9325
I1
tp7197
a(V\u7da6
I1
tp7198
a(V\u7baa
I1
tp7199
a(V\u7c3b
I1
tp7200
a(V\u8043
I1
tp7201
a(V\u5d51
I1
tp7202
a(V\u57e2
I1
tp7203
a(V\u5677
I1
tp7204
a(V\u73fa
I1
tp7205
a(V\u5b14
I1
tp7206
a(V\u52a5
I1
tp7207
a(V\u6ab5
I1
tp7208
a(V\u8b34
I1
tp7209
a(V\u9f3c
I1
tp7210
a(V\u53cf
I1
tp7211
a(V\u9cd1
I1
tp7212
a(V\u825a
I1
tp7213
a(V\u5e92
I1
tp7214
a(V\u7a15
I1
tp7215
a(V\u7ca6
I1
tp7216
a(V\u94b6
I1
tp7217
a(V\u7dd0
I1
tp7218
a(V\u8502
I1
tp7219
a(V\u8f06
I1
tp7220
a(V\u890a
I1
tp7221
a(V\u930e
I1
tp7222
a(V\u889f
I1
tp7223
a(V\u7a28
I1
tp7224
a(V\u6f46
I1
tp7225
a(V\u56cb
I1
tp7226
a(V\u5ad3
I1
tp7227
a(V\u9efb
I1
tp7228
a(V\u6105
I1
tp7229
a(V\u97b6
I1
tp7230
a(V\u66c0
I1
tp7231
a(V\u7ed0
I1
tp7232
a(V\u9d7d
I1
tp7233
a(V\u8402
I1
tp7234
a(V\u778b
I1
tp7235
a(V\u718f
I1
tp7236
a(V\u899f
I1
tp7237
a(V\u6eb1
I1
tp7238
a(V\u684a
I1
tp7239
a(V\u87eb
I1
tp7240
a(V\u4f1b
I1
tp7241
a(V\u9a29
I1
tp7242
a(V\u90ba
I1
tp7243
a(V\u544d
I1
tp7244
a(V\u83d8
I1
tp7245
a(V\u5ee6
I1
tp7246
a(V\u58ea
I1
tp7247
a(V\u6cf2
I1
tp7248
a(V\u7afe
I1
tp7249
a(V\u60db
I1
tp7250
a(V\u5e64
I1
tp7251
a(V\u8e84
I1
tp7252
a(V\u6509
I1
tp7253
a(V\u5d8e
I1
tp7254
a(V\u7111
I1
tp7255
a(V\u7ba2
I1
tp7256
a(V\u9529
I1
tp7257
a(V\u8775
I1
tp7258
a(V\u567f
I1
tp7259
a(V\u631c
I1
tp7260
a(V\u8e5a
I1
tp7261
a(V\u91fb
I1
tp7262
a(V\u8980
I1
tp7263
a(V\u9429
I1
tp7264
a(V\u692b
I1
tp7265
a(V\u6f2f
I1
tp7266
a(V\u7b37
I1
tp7267
a(V\u7bcc
I1
tp7268
a(V\u8dd8
I1
tp7269
a(V\u882c
I1
tp7270
a(V\u86f3
I1
tp7271
a(V\u6474
I1
tp7272
a(V\u5ff9
I1
tp7273
a(V\u7311
I1
tp7274
a(V\u6d9a
I1
tp7275
a(V\u5e23
I1
tp7276
a(V\u9c4f
I1
tp7277
a(V\u8ed8
I1
tp7278
a(V\u615d
I1
tp7279
a(V\u7b61
I1
tp7280
a(V\u7d65
I1
tp7281
a(V\u896d
I1
tp7282
a(V\u8371
I1
tp7283
a(V\u917d
I1
tp7284
a(V\u6246
I1
tp7285
a(V\u7e4e
I1
tp7286
a(V\u946a
I1
tp7287
a(V\u93fb
I1
tp7288
a(V\u6c05
I1
tp7289
a(V\u5127
I1
tp7290
a(V\u72a6
I1
tp7291
a(V\u9cba
I1
tp7292
a(V\u6e59
I1
tp7293
a(V\u605d
I1
tp7294
a(V\u6883
I1
tp7295
a(V\u7a8f
I1
tp7296
a(V\u829f
I1
tp7297
a(V\u7c20
I1
tp7298
a(V\u65b1
I1
tp7299
a(V\u5b3a
I1
tp7300
a(V\u794e
I1
tp7301
a(V\u936a
I1
tp7302
a(V\u57fd
I1
tp7303
a(V\u8088
I1
tp7304
a(V\u598e
I1
tp7305
a(V\u8919
I1
tp7306
a(V\u9d21
I1
tp7307
a(V\u6a2f
I1
tp7308
a(V\u6033
I1
tp7309
a(V\u8843
I1
tp7310
a(V\u977d
I1
tp7311
a(V\u6787
I1
tp7312
a(V\u99a3
I1
tp7313
a(V\u5aa5
I1
tp7314
a(V\u76bd
I1
tp7315
a(V\u8a5a
I1
tp7316
a(V\u926a
I1
tp7317
a(V\u4eed
I1
tp7318
a(V\u6c01
I1
tp7319
a(V\u5692
I1
tp7320
a(V\u5923
I1
tp7321
a(V\u9a25
I1
tp7322
a(V\u9aba
I1
tp7323
a(V\u6859
I1
tp7324
a(V\u7a65
I1
tp7325
a(V\u869b
I1
tp7326
a(V\u7228
I1
tp7327
a(V\u8034
I1
tp7328
a(V\u5f36
I1
tp7329
a(V\u66db
I1
tp7330
a(V\u5e60
I1
tp7331
a(V\u9094
I1
tp7332
a(V\u682f
I1
tp7333
a(V\u5155
I1
tp7334
a(V\u70d4
I1
tp7335
a(V\u84dc
I1
tp7336
a(V\u4e6b
I1
tp7337
a(V\u51ea
I1
tp7338
a(V\u5d0c
I1
tp7339
a(V\u5710
I1
tp7340
a(V\u8d97
I1
tp7341
a(V\u953c
I1
tp7342
a(V\u96d1
I1
tp7343
a(V\u53d3
I1
tp7344
a(V\u6dd7
I1
tp7345
a(V\u5964
I1
tp7346
a(V\u5af9
I1
tp7347
a(V\u71d4
I1
tp7348
a(V\u50ea
I1
tp7349
a(V\u8c6d
I1
tp7350
a(V\u6aee
I1
tp7351
a(V\u577b
I1
tp7352
a(V\u517f
I1
tp7353
a(V\u73ad
I1
tp7354
a(V\u7946
I1
tp7355
a(V\u6b52
I1
tp7356
a(V\u9d5e
I1
tp7357
a(V\u8966
I1
tp7358
a(V\u762f
I1
tp7359
a(V\u81b6
I1
tp7360
a(V\u6e3f
I1
tp7361
a(V\u70c0
I1
tp7362
a(V\u76c4
I1
tp7363
a(V\u51d6
I1
tp7364
a(V\u9adc
I1
tp7365
a(V\u7bf2
I1
tp7366
a(V\u9397
I1
tp7367
a(V\u5a9d
I1
tp7368
a(V\u85a3
I1
tp7369
a(V\u932c
I1
tp7370
a(V\u8b3c
I1
tp7371
a(V\u7846
I1
tp7372
a(V\u79db
I1
tp7373
a(V\u9c5e
I1
tp7374
a(V\u736c
I1
tp7375
a(V\u6e15
I1
tp7376
a(V\u8f94
I1
tp7377
a(V\u8625
I1
tp7378
a(V\u712b
I1
tp7379
a(V\u6337
I1
tp7380
a(V\u7a5d
I1
tp7381
a(V\u7af2
I1
tp7382
a(V\u8479
I1
tp7383
a(V\u67b9
I1
tp7384
a(V\u70d7
I1
tp7385
a(V\u9356
I1
tp7386
a(V\u955a
I1
tp7387
a(V\u7c74
I1
tp7388
a(V\u5c1f
I1
tp7389
a(V\u6ba6
I1
tp7390
a(V\u6c3f
I1
tp7391
a(V\u6ad0
I1
tp7392
a(V\u860e
I1
tp7393
a(V\u9b9b
I1
tp7394
a(V\u59c7
I1
tp7395
a(V\u664e
I1
tp7396
a(V\u9256
I1
tp7397
a(V\u7d74
I1
tp7398
a(V\u749a
I1
tp7399
a(V\u981d
I1
tp7400
a(V\u60a2
I1
tp7401
a(V\u96ae
I1
tp7402
a(V\u98b2
I1
tp7403
a(V\u84ba
I1
tp7404
a(V\u8f53
I1
tp7405
a(V\u6261
I1
tp7406
a(V\u8fe8
I1
tp7407
a(V\u887d
I1
tp7408
a(V\u5400
I1
tp7409
a(V\u7083
I1
tp7410
a(V\u9702
I1
tp7411
a(V\u93c5
I1
tp7412
a(V\u5ec7
I1
tp7413
a(V\u7cdb
I1
tp7414
a(V\u6e7c
I1
tp7415
a(V\u8aff
I1
tp7416
a(V\u7305
I1
tp7417
a(V\u722f
I1
tp7418
a(V\u7f5d
I1
tp7419
a(V\u6365
I1
tp7420
a(V\u82e4
I1
tp7421
a(V\u546b
I1
tp7422
a(V\u976d
I1
tp7423
a(V\u9d71
I1
tp7424
a(V\u9b75
I1
tp7425
a(V\u7183
I1
tp7426
a(V\u9797
I1
tp7427
a(V\u6928
I1
tp7428
a(V\u972c
I1
tp7429
a(V\u6ebd
I1
tp7430
a(V\u8f3c
I1
tp7431
a(V\u51c3
I1
tp7432
a(V\u6e52
I1
tp7433
a(V\u8ad5
I1
tp7434
a(V\u7bdf
I1
tp7435
a(V\u8c66
I1
tp7436
a(V\u8a6a
I1
tp7437
a(V\u8421
I1
tp7438
a(V\u8225
I1
tp7439
a(V\u4fbc
I1
tp7440
a(V\u6b3f
I1
tp7441
a(V\u5441
I1
tp7442
a(V\u5849
I1
tp7443
a(V\u7e5d
I1
tp7444
a(V\u6265
I1
tp7445
a(V\u9a75
I1
tp7446
a(V\u9f06
I1
tp7447
a(V\u668b
I1
tp7448
a(V\u8238
I1
tp7449
a(V\u7542
I1
tp7450
a(V\u794a
I1
tp7451
a(V\u55ed
I1
tp7452
a(V\u7874
I1
tp7453
a(V\u6278
I1
tp7454
a(V\u8e90
I1
tp7455
a(V\u719a
I1
tp7456
a(V\u581f
I1
tp7457
a(V\u7359
I1
tp7458
a(V\u9cdc
I1
tp7459
a(V\u8d7d
I1
tp7460
a(V\u7318
I1
tp7461
a(V\u6b28
I1
tp7462
a(V\u5c32
I1
tp7463
a(V\u84cd
I1
tp7464
a(V\u9bf3
I1
tp7465
a(V\u89ff
I1
tp7466
a(V\u4ee6
I1
tp7467
a(V\u6a69
I1
tp7468
a(V\u516f
I1
tp7469
a(V\u7287
I1
tp7470
a(V\u688b
I1
tp7471
a(V\u970a
I1
tp7472
a(V\u909b
I1
tp7473
a(V\u539d
I1
tp7474
a(V\u94f3
I1
tp7475
a(V\u7996
I1
tp7476
a(V\u782b
I1
tp7477
a(V\u8e4f
I1
tp7478
a(V\u8453
I1
tp7479
a(V\u5fda
I1
tp7480
a(V\u5c2e
I1
tp7481
a(V\u7bd7
I1
tp7482
a(V\u921d
I1
tp7483
a(V\u66aa
I1
tp7484
a(V\u9dd8
I1
tp7485
a(V\u85e8
I1
tp7486
a(V\u596b
I1
tp7487
a(V\u5a00
I1
tp7488
a(V\u73b1
I1
tp7489
a(V\u7346
I1
tp7490
a(V\u83d1
I1
tp7491
a(V\u8962
I1
tp7492
a(V\u8290
I1
tp7493
a(V\u9f19
I1
tp7494
a(V\u69a2
I1
tp7495
a(V\u7c2f
I1
tp7496
a(V\u8653
I1
tp7497
a(V\u5bd6
I1
tp7498
a(V\u90dc
I1
tp7499
a(V\u7fee
I1
tp7500
a(V\u9575
I1
tp7501
a(V\u6bf6
I1
tp7502
a(V\u72b1
I1
tp7503
a(V\u9b80
I1
tp7504
a(V\u8a21
I1
tp7505
a(V\u64aa
I1
tp7506
a(V\u633b
I1
tp7507
a(V\u86be
I1
tp7508
a(V\u8e79
I1
tp7509
a(V\u7883
I1
tp7510
a(V\u6093
I1
tp7511
a(V\u761c
I1
tp7512
a(V\u86a7
I1
tp7513
a(V\u863c
I1
tp7514
a(V\u734a
I1
tp7515
a(V\u74db
I1
tp7516
a(V\u82ff
I1
tp7517
a(V\u6315
I1
tp7518
a(V\u8294
I1
tp7519
a(V\u7a2f
I1
tp7520
a(V\u5d41
I1
tp7521
a(V\u5b45
I1
tp7522
a(V\u5bda
I1
tp7523
a(V\u775d
I1
tp7524
a(V\u8979
I1
tp7525
a(V\u880e
I1
tp7526
a(V\u582e
I1
tp7527
a(V\u68b9
I1
tp7528
a(V\u57c7
I1
tp7529
a(V\u575c
I1
tp7530
a(V\u7374
I1
tp7531
a(V\u7c96
I1
tp7532
a(V\u709e
I1
tp7533
a(V\u5a45
I1
tp7534
a(V\u765d
I1
tp7535
a(V\u4ee2
I1
tp7536
a(V\u6a65
I1
tp7537
a(V\u8879
I1
tp7538
a(V\u6824
I1
tp7539
a(V\u9630
I1
tp7540
a(V\u6bb9
I1
tp7541
a(V\u99c5
I1
tp7542
a(V\u8dcd
I1
tp7543
a(V\u6552
I1
tp7544
a(V\u7074
I1
tp7545
a(V\u5786
I1
tp7546
a(V\u739e
I1
tp7547
a(V\u8329
I1
tp7548
a(V\u5f41
I1
tp7549
a(V\u82e8
I1
tp7550
a(V\u9606
I1
tp7551
a(V\u5bc3
I1
tp7552
a(V\u7c42
I1
tp7553
a(V\u98c5
I1
tp7554
a(V\u8ccd
I1
tp7555
a(V\u86d1
I1
tp7556
a(V\u9f80
I1
tp7557
a(V\u6c0d
I1
tp7558
a(V\u8e21
I1
tp7559
a(V\u57b0
I1
tp7560
a(V\u9b43
I1
tp7561
a(V\u5249
I1
tp7562
a(V\u61d4
I1
tp7563
a(V\u9671
I1
tp7564
a(V\u74f2
I1
tp7565
a(V\u6ac7
I1
tp7566
a(V\u85d9
I1
tp7567
a(V\u9de9
I1
tp7568
a(V\u6ff5
I1
tp7569
a(V\u7bfd
I1
tp7570
a(V\u5a7c
I1
tp7571
a(V\u681b
I1
tp7572
a(V\u61d6
I1
tp7573
a(V\u88f0
I1
tp7574
a(V\u8ef4
I1
tp7575
a(V\u5724
I1
tp7576
a(V\u7036
I1
tp7577
a(V\u6bc7
I1
tp7578
a(V\u934c
I1
tp7579
a(V\u96e5
I1
tp7580
a(V\u6282
I1
tp7581
a(V\u8b07
I1
tp7582
a(V\u691b
I1
tp7583
a(V\u822d
I1
tp7584
a(V\u5337
I1
tp7585
a(V\u6041
I1
tp7586
a(V\u5fd4
I1
tp7587
a(V\u66da
I1
tp7588
a(V\u797b
I1
tp7589
a(V\u700c
I1
tp7590
a(V\u8316
I1
tp7591
a(V\u9122
I1
tp7592
a(V\u6658
I1
tp7593
a(V\u6bf1
I1
tp7594
a(V\u7623
I1
tp7595
a(V\u94a4
I1
tp7596
a(V\u6f49
I1
tp7597
a(V\u6fde
I1
tp7598
a(V\u7dea
I1
tp7599
a(V\u74a5
I1
tp7600
a(V\u9c2a
I1
tp7601
a(V\u662e
I1
tp7602
a(V\u56b9
I1
tp7603
a(V\u9bbb
I1
tp7604
a(V\u67c3
I1
tp7605
a(V\u7564
I1
tp7606
a(V\u947a
I1
tp7607
a(V\u9e7e
I1
tp7608
a(V\u6117
I1
tp7609
a(V\u6db4
I1
tp7610
a(V\u9639
I1
tp7611
a(V\u80c2
I1
tp7612
a(V\u6f73
I1
tp7613
a(V\u52f6
I1
tp7614
a(V\u5efe
I1
tp7615
a(V\u8581
I1
tp7616
a(V\u8989
I1
tp7617
a(V\u760c
I1
tp7618
a(V\u9b2a
I1
tp7619
a(V\u96b7
I1
tp7620
a(V\u60c3
I1
tp7621
a(V\u8244
I1
tp7622
a(V\u74cb
I1
tp7623
a(V\u514e
I1
tp7624
a(V\u6e5c
I1
tp7625
a(V\u67ed
I1
tp7626
a(V\u8f72
I1
tp7627
a(V\u5078
I1
tp7628
a(V\u6617
I1
tp7629
a(V\u92a4
I1
tp7630
a(V\u5a3f
I1
tp7631
a(V\u5324
I1
tp7632
a(V\u6fc7
I1
tp7633
a(V\u5d3b
I1
tp7634
a(V\u8cc6
I1
tp7635
a(V\u7a55
I1
tp7636
a(V\u5bd4
I1
tp7637
a(V\u5869
I1
tp7638
a(V\u6973
I1
tp7639
a(V\u740c
I1
tp7640
a(V\u9995
I1
tp7641
a(V\u8716
I1
tp7642
a(V\u8b1e
I1
tp7643
a(V\u97e1
I1
tp7644
a(V\u9be9
I1
tp7645
a(V\u8203
I1
tp7646
a(V\u8c07
I1
tp7647
a(V\u8c9c
I1
tp7648
a(V\u7223
I1
tp7649
a(V\u90a4
I1
tp7650
a(V\u5fa6
I1
tp7651
a(V\u9339
I1
tp7652
a(V\u5e3b
I1
tp7653
a(V\u5ed0
I1
tp7654
a(V\u6bde
I1
tp7655
a(V\u7fe6
I1
tp7656
a(V\u5bfe
I1
tp7657
a(V\u6b08
I1
tp7658
a(V\u6299
I1
tp7659
a(V\u52b9
I1
tp7660
a(V\u703a
I1
tp7661
a(V\u63c3
I1
tp7662
a(V\u6358
I1
tp7663
a(V\u910f
I1
tp7664
a(V\u6517
I1
tp7665
a(V\u6641
I1
tp7666
a(V\u55cc
I1
tp7667
a(V\u5a69
I1
tp7668
a(V\u6b73
I1
tp7669
a(V\u9dfc
I1
tp7670
a(V\u9795
I1
tp7671
a(V\u5820
I1
tp7672
a(V\u972a
I1
tp7673
a(V\u83dd
I1
tp7674
a(V\u7860
I1
tp7675
a(V\u8d6e
I1
tp7676
a(V\u9f7a
I1
tp7677
a(V\u4f05
I1
tp7678
a(V\u5715
I1
tp7679
a(V\u6a17
I1
tp7680
a(V\u601b
I1
tp7681
a(V\u8735
I1
tp7682
a(V\u8bc2
I1
tp7683
a(V\u7be2
I1
tp7684
a(V\u767f
I1
tp7685
a(V\u6900
I1
tp7686
a(V\u7b0c
I1
tp7687
a(V\u5593
I1
tp7688
a(V\u7714
I1
tp7689
a(V\u78a1
I1
tp7690
a(V\u7ea5
I1
tp7691
a(V\u5cb9
I1
tp7692
a(V\u97bf
I1
tp7693
a(V\u66f5
I1
tp7694
a(V\u7d23
I1
tp7695
a(V\u5aa2
I1
tp7696
a(V\u8b57
I1
tp7697
a(V\u9391
I1
tp7698
a(V\u871e
I1
tp7699
a(V\u952a
I1
tp7700
a(V\u86b3
I1
tp7701
a(V\u6ec3
I1
tp7702
a(V\u81dd
I1
tp7703
a(V\u8e98
I1
tp7704
a(V\u52d0
I1
tp7705
a(V\u82f0
I1
tp7706
a(V\u6b00
I1
tp7707
a(V\u7310
I1
tp7708
a(V\u7aa1
I1
tp7709
a(V\u5d24
I1
tp7710
a(V\u7a36
I1
tp7711
a(V\u7c3a
I1
tp7712
a(V\u8b40
I1
tp7713
a(V\u5fe3
I1
tp7714
a(V\u68ed
I1
tp7715
a(V\u64f5
I1
tp7716
a(V\u8107
I1
tp7717
a(V\u7127
I1
tp7718
a(V\u55d4
I1
tp7719
a(V\u66de
I1
tp7720
a(V\u6b6b
I1
tp7721
a(V\u74ea
I1
tp7722
a(V\u7e0c
I1
tp7723
a(V\u9395
I1
tp7724
a(V\u9f22
I1
tp7725
a(V\u7ba5
I1
tp7726
a(V\u932a
I1
tp7727
a(V\u4fad
I1
tp7728
a(V\u692e
I1
tp7729
a(V\u6732
I1
tp7730
a(V\u9d76
I1
tp7731
a(V\u638a
I1
tp7732
a(V\u523f
I1
tp7733
a(V\u7551
I1
tp7734
a(V\u825f
I1
tp7735
a(V\u9667
I1
tp7736
a(V\u51fe
I1
tp7737
a(V\u7314
I1
tp7738
a(V\u8c16
I1
tp7739
a(V\u8a1a
I1
tp7740
a(V\u7ca1
I1
tp7741
a(V\u8d40
I1
tp7742
a(V\u67c7
I1
tp7743
a(V\u9f4c
I1
tp7744
a(V\u9ae5
I1
tp7745
a(V\u9c76
I1
tp7746
a(V\u577c
I1
tp7747
a(V\u5e0d
I1
tp7748
a(V\u9113
I1
tp7749
a(V\u7923
I1
tp7750
a(V\u7e4d
I1
tp7751
a(V\u5a65
I1
tp7752
a(V\u5069
I1
tp7753
a(V\u5afa
I1
tp7754
a(V\u97fc
I1
tp7755
a(V\u50fe
I1
tp7756
a(V\u9d8d
I1
tp7757
a(V\u5293
I1
tp7758
a(V\u891a
I1
tp7759
a(V\u6532
I1
tp7760
a(V\u7ecb
I1
tp7761
a(V\u9c4c
I1
tp7762
a(V\u7592
I1
tp7763
a(V\u77e6
I1
tp7764
a(V\u53fe
I1
tp7765
a(V\u7d0c
I1
tp7766
a(V\u78a5
I1
tp7767
a(V\u5924
I1
tp7768
a(V\u9626
I1
tp7769
a(V\u5328
I1
tp7770
a(V\u9d4c
I1
tp7771
a(V\u9750
I1
tp7772
a(V\u73d3
I1
tp7773
a(V\u66f1
I1
tp7774
a(V\u8472
I1
tp7775
a(V\u9e76
I1
tp7776
a(V\u927e
I1
tp7777
a(V\u8b03
I1
tp7778
a(V\u608a
I1
tp7779
a(V\u6dac
I1
tp7780
a(V\u7bb8
I1
tp7781
a(V\u80ca
I1
tp7782
a(V\u7ce2
I1
tp7783
a(V\u9bf8
I1
tp7784
a(V\u777b
I1
tp7785
a(V\u95fc
I1
tp7786
a(V\u61a1
I1
tp7787
a(V\u7986
I1
tp7788
a(V\u932d
I1
tp7789
a(V\u8539
I1
tp7790
a(V\u6abc
I1
tp7791
a(V\u99c6
I1
tp7792
a(V\u9c89
I1
tp7793
a(V\u7499
I1
tp7794
a(V\u6ca9
I1
tp7795
a(V\u52ad
I1
tp7796
a(V\u89bb
I1
tp7797
a(V\u6764
I1
tp7798
a(V\u8ce9
I1
tp7799
a(V\u78f1
I1
tp7800
a(V\u64f9
I1
tp7801
a(V\u867a
I1
tp7802
a(V\u870f
I1
tp7803
a(V\u87a4
I1
tp7804
a(V\u922d
I1
tp7805
a(V\u8a3d
I1
tp7806
a(V\u5683
I1
tp7807
a(V\u600c
I1
tp7808
a(V\u4e93
I1
tp7809
a(V\u581c
I1
tp7810
a(V\u8b26
I1
tp7811
a(V\u5142
I1
tp7812
a(V\u5d4a
I1
tp7813
a(V\u64cf
I1
tp7814
a(V\u6e68
I1
tp7815
a(V\u506c
I1
tp7816
a(V\u840f
I1
tp7817
a(V\u6be6
I1
tp7818
a(V\u726b
I1
tp7819
a(V\u9e89
I1
tp7820
a(V\u4f93
I1
tp7821
a(V\u4f28
I1
tp7822
a(V\u8b50
I1
tp7823
a(V\u5d74
I1
tp7824
a(V\u8276
I1
tp7825
a(V\u8e7e
I1
tp7826
a(V\u830b
I1
tp7827
a(V\u850f
I1
tp7828
a(V\u668e
I1
tp7829
a(V\u5296
I1
tp7830
a(V\u85a4
I1
tp7831
a(V\u6927
I1
tp7832
a(V\u902d
I1
tp7833
a(V\u7bb0
I1
tp7834
a(V\u7445
I1
tp7835
a(V\u9ac6
I1
tp7836
a(V\u8967
I1
tp7837
a(V\u7f73
I1
tp7838
a(V\u7400
I1
tp7839
a(V\u5083
I1
tp7840
a(V\u9989
I1
tp7841
a(V\u6a14
I1
tp7842
a(V\u7f32
I1
tp7843
a(V\u864c
I1
tp7844
a(V\u7bf5
I1
tp7845
a(V\u9e9c
I1
tp7846
a(V\u88a8
I1
tp7847
a(V\u522f
I1
tp7848
a(V\u52c4
I1
tp7849
a(V\u674d
I1
tp7850
a(V\u6b55
I1
tp7851
a(V\u67e2
I1
tp7852
a(V\u51ee
I1
tp7853
a(V\u9cf0
I1
tp7854
a(V\u6a7f
I1
tp7855
a(V\u868d
I1
tp7856
a(V\u56ad
I1
tp7857
a(V\u90d9
I1
tp7858
a(V\u6364
I1
tp7859
a(V\u88e9
I1
tp7860
a(V\u576c
I1
tp7861
a(V\u7cf1
I1
tp7862
a(V\u6efd
I1
tp7863
a(V\u887e
I1
tp7864
a(V\u7245
I1
tp7865
a(V\u5e5d
I1
tp7866
a(V\u66e2
I1
tp7867
a(V\u911a
I1
tp7868
a(V\u6ba9
I1
tp7869
a(V\u5105
I1
tp7870
a(V\u6d92
I1
tp7871
a(V\u9f31
I1
tp7872
a(V\u5a33
I1
tp7873
a(V\u95c2
I1
tp7874
a(V\u7145
I1
tp7875
a(V\u8dd2
I1
tp7876
a(V\u6955
I1
tp7877
a(V\u9e5b
I1
tp7878
a(V\u7104
I1
tp7879
a(V\u9a89
I1
tp7880
a(V\u650c
I1
tp7881
a(V\u97ab
I1
tp7882
a(V\u6a3e
I1
tp7883
a(V\u55d7
I1
tp7884
a(V\u8a7e
I1
tp7885
a(V\u7482
I1
tp7886
a(V\u788a
I1
tp7887
a(V\u8b13
I1
tp7888
a(V\u81a4
I1
tp7889
a(V\u6ee6
I1
tp7890
a(V\u95ec
I1
tp7891
a(V\u6f7b
I1
tp7892
a(V\u8191
I1
tp7893
a(V\u9f1a
I1
tp7894
a(V\u8b22
I1
tp7895
a(V\u98ab
I1
tp7896
a(V\u5bad
I1
tp7897
a(V\u8ab7
I1
tp7898
a(V\u9e44
I1
tp7899
a(V\u7c58
I1
tp7900
a(V\u7a17
I1
tp7901
a(V\u8ea4
I1
tp7902
a(V\u84a8
I1
tp7903
a(V\u5e2f
I1
tp7904
a(V\u9bc2
I1
tp7905
a(V\u6be2
I1
tp7906
a(V\u7473
I1
tp7907
a(V\u9816
I1
tp7908
a(V\u6836
I1
tp7909
a(V\u81bb
I1
tp7910
a(V\u9f44
I1
tp7911
a(V\u8b4c
I1
tp7912
a(V\u8754
I1
tp7913
a(V\u70f1
I1
tp7914
a(V\u5774
I1
tp7915
a(V\u7a82
I1
tp7916
a(V\u5896
I1
tp7917
a(V\u6d23
I1
tp7918
a(V\u7bac
I1
tp7919
a(V\u8c39
I1
tp7920
a(V\u823d
I1
tp7921
a(V\u63bc
I1
tp7922
a(V\u7841
I1
tp7923
a(V\u91f0
I1
tp7924
a(V\u52f2
I1
tp7925
a(V\u9789
I1
tp7926
a(V\u53b1
I1
tp7927
a(V\u96b3
I1
tp7928
a(V\u6b36
I1
tp7929
a(V\u70c7
I1
tp7930
a(V\u586c
I1
tp7931
a(V\u8613
I1
tp7932
a(V\u9e98
I1
tp7933
a(V\u7b41
I1
tp7934
a(V\u5cc4
I1
tp7935
a(V\u9857
I1
tp7936
a(V\u9c1a
I1
tp7937
a(V\u709d
I1
tp7938
a(V\u961e
I1
tp7939
a(V\u83bb
I1
tp7940
a(V\u894c
I1
tp7941
a(V\u6d64
I1
tp7942
a(V\u86e9
I1
tp7943
a(V\u74f5
I1
tp7944
a(V\u6ef9
I1
tp7945
a(V\u9f98
I1
tp7946
a(V\u8ba0
I1
tp7947
a(V\u7c45
I1
tp7948
a(V\u6e0c
I1
tp7949
a(V\u5818
I1
tp7950
a(V\u8254
I1
tp7951
a(V\u9607
I1
tp7952
a(V\u8013
I1
tp7953
a(V\u4e37
I1
tp7954
a(V\u66bc
I1
tp7955
a(V\u6fe2
I1
tp7956
a(V\u57f2
I1
tp7957
a(V\u8295
I1
tp7958
a(V\u6aa5
I1
tp7959
a(V\u8a7a
I1
tp7960
a(V\u7f17
I1
tp7961
a(V\u8da0
I1
tp7962
a(V\u9ec2
I1
tp7963
a(V\u88ce
I1
tp7964
a(V\u8d8d
I1
tp7965
a(V\u8791
I1
tp7966
a(V\u6610
I1
tp7967
a(V\u9e40
I1
tp7968
a(V\u9844
I1
tp7969
a(V\u74c7
I1
tp7970
a(V\u6e60
I1
tp7971
a(V\u5670
I1
tp7972
a(V\u6bf9
I1
tp7973
a(V\u837e
I1
tp7974
a(V\u9407
I1
tp7975
a(V\u7786
I1
tp7976
a(V\u9a98
I1
tp7977
a(V\u7cac
I1
tp7978
a(V\u5233
I1
tp7979
a(V\u7fd6
I1
tp7980
a(V\u905f
I1
tp7981
a(V\u802a
I1
tp7982
a(V\u7bc3
I1
tp7983
a(V\u5646
I1
tp7984
a(V\u5dd7
I1
tp7985
a(V\u7b58
I1
tp7986
a(V\u57db
I1
tp7987
a(V\u5333
I1
tp7988
a(V\u71b4
I1
tp7989
a(V\u8ace
I1
tp7990
a(V\u9d57
I1
tp7991
a(V\u677b
I1
tp7992
a.