(dp1
Vpao1
p2
(lp3
V\u629b
aV\u812c
asVpao2
p4
(lp5
V\u888d
aV\u5486
aV\u5e96
aV\u9f85
aV\u72cd
aV\u530f
asVpao3
p6
(lp7
V\u8dd1
asVpao4
p8
(lp9
V\u6ce1
aV\u70ae
aV\u75b1
aV\u791f
aV\u792e
aV\u7832
asVge2
p10
(lp11
V\u683c
aV\u9769
aV\u9694
aV\u9601
aV\u845b
aV\u9abc
aV\u9549
aV\u55dd
aV\u9616
aV\u5676
aV\u8f55
aV\u8188
aV\u8316
aV\u9c2a
aV\u6105
asVfa2
p12
(lp13
V\u4e4f
aV\u7f5a
aV\u4f10
aV\u9600
aV\u7b4f
aV\u781d
aV\u7f78
asVfa3
p14
(lp15
V\u6cd5
asVfa1
p16
(lp17
V\u53d1
aV\u5f42
asVqi1
p18
(lp19
V\u671f
aV\u4e03
aV\u59bb
aV\u6b3a
aV\u6f06
aV\u6816
aV\u621a
aV\u51c4
aV\u6c8f
aV\u5601
aV\u67d2
aV\u6532
asV\u5c83
(lp20
V\u5c83
asVfa4
p21
(lp22
V\u73d0
asVyu4
p23
(lp24
V\u9884
aV\u80b2
aV\u57df
aV\u9047
aV\u6b32
aV\u8a89
aV\u72f1
aV\u88d5
aV\u5bd3
aV\u6108
aV\u7389
aV\u90c1
aV\u5fa1
aV\u6d74
aV\u55bb
aV\u8c6b
aV\u9a6d
aV\u828b
aV\u6bd3
aV\u9608
aV\u8c15
aV\u9e6c
aV\u94b0
aV\u807f
aV\u715c
aV\u6631
aV\u5cea
aV\u59aa
aV\u7907
aV\u9fa5
aV\u6b0e
aV\u942d
aV\u5f67
aV\u9b3b
aV\u8581
aV\u8080
aV\u6b1d
aV\u872e
aV\u5fec
aV\u7a36
aV\u9325
aV\u68db
aV\u5d8e
aV\u84e3
aV\u7a65
aV\u7872
asVmou3
p25
(lp26
V\u67d0
asVzhan1
p27
(lp28
V\u5360
aV\u8a79
aV\u6cbe
aV\u77bb
aV\u6be1
aV\u8c35
aV\u89c7
aV\u6834
asVcao3
p29
(lp30
V\u8349
asVcao2
p31
(lp32
V\u69fd
aV\u66f9
aV\u5608
aV\u6f15
aV\u5d86
aV\u87ac
aV\u825a
asVzhan4
p33
(lp34
V\u6218
aV\u7ad9
aV\u98a4
aV\u6e5b
aV\u7efd
aV\u6808
aV\u8638
aV\u6226
aV\u83da
asV\u7c2f
(lp35
V\u7c2f
asVmou4
p36
(lp37
V\u6117
asVgai4
p38
(lp39
V\u76d6
aV\u6982
aV\u9499
aV\u6e89
aV\u4e10
aV\u69ea
aV\u74c2
asVshao4
p40
(lp41
V\u7ecd
aV\u54e8
aV\u90b5
aV\u52ad
aV\u6f72
asVwei2
p42
(lp43
V\u7ef4
aV\u56f4
aV\u8fdd
aV\u552f
aV\u97e6
aV\u8587
aV\u60df
aV\u5e37
aV\u6845
aV\u95f1
aV\u56d7
aV\u6f4d
aV\u5729
aV\u934f
aV\u5e0f
aV\u912c
aV\u5d6c
aV\u6b08
aV\u6ca9
asVjin1
p44
(lp45
V\u91d1
aV\u4eca
aV\u6d25
aV\u65a4
aV\u5dfe
aV\u7b4b
aV\u895f
aV\u77dc
aV\u89d4
aV\u9485
aV\u9e76
asVsan4
p46
(lp47
V\u6563
aV\u6f75
asV\u8b22
(lp48
V\u8b22
asVsan3
p49
(lp50
V\u4f1e
aV\u7e56
aV\u9993
aV\u7ce4
asVsan1
p51
(lp52
V\u4e09
aV\u53c1
aV\u7cc1
asVye4
p53
(lp54
V\u4e1a
aV\u9875
aV\u591c
aV\u53f6
aV\u6db2
aV\u62fd
aV\u66f3
aV\u6396
aV\u70e8
aV\u9765
aV\u8c12
aV\u9371
aV\u9391
aV\u90ba
aV\u6fb2
aV\u66f5
asVshao2
p55
(lp56
V\u52fa
aV\u97f6
aV\u6753
aV\u828d
asVfei2
p57
(lp58
V\u80a5
aV\u8153
aV\u8409
asVzei2
p59
(lp60
V\u8d3c
asVshao3
p61
(lp62
V\u5c11
asVgu3
p63
(lp64
V\u80a1
aV\u53e4
aV\u9f13
aV\u8c37
aV\u9aa8
aV\u7f5f
aV\u86ca
aV\u6bc2
aV\u6996
aV\u6c69
aV\u5502
aV\u77bd
aV\u85a3
aV\u8bc2
aV\u560f
aV\u9989
aV\u6262
aV\u6dc8
asVgu1
p65
(lp66
V\u4f30
aV\u5b64
aV\u59d1
aV\u8f9c
aV\u83c7
aV\u5495
aV\u6cbd
aV\u5471
aV\u94b4
aV\u7b8d
aV\u9e2a
aV\u86c4
aV\u83f0
aV\u89da
asVtian2
p67
(lp68
V\u7530
aV\u586b
aV\u751c
aV\u606c
aV\u5861
aV\u6437
aV\u9dcf
aV\u7551
aV\u55d4
aV\u6cba
asV\u8421
(lp69
V\u8421
asVgu4
p70
(lp71
V\u987e
aV\u6545
aV\u96c7
aV\u56fa
aV\u9522
aV\u688f
aV\u75fc
aV\u69be
aV\u797b
asVdi4
p72
(lp73
V\u5730
aV\u7b2c
aV\u8482
aV\u5f1f
aV\u9012
aV\u5e1d
aV\u7f14
aV\u8c1b
aV\u68e3
aV\u7747
aV\u5a23
aV\u5572
aV\u78b2
aV\u5886
aV\u65f3
aV\u54cb
aV\u926a
aV\u73f6
asVcha2
p74
(lp75
V\u67e5
aV\u5bdf
aV\u8336
aV\u78b4
aV\u643d
aV\u69ce
aV\u6aab
aV\u9538
asVshao1
p76
(lp77
V\u70e7
aV\u7a0d
aV\u7b72
aV\u68a2
aV\u634e
aV\u8244
aV\u9afe
asVdi1
p78
(lp79
V\u4f4e
aV\u6ef4
aV\u5824
aV\u889b
aV\u7f9d
asVdi2
p80
(lp81
V\u8fea
aV\u654c
aV\u72c4
aV\u7b1b
aV\u6da4
aV\u5600
aV\u7fdf
aV\u837b
aV\u5ae1
aV\u955d
aV\u5ef8
aV\u4ee2
aV\u8510
aV\u7c74
aV\u5519
asVdi3
p82
(lp83
V\u5e95
aV\u62b5
aV\u90b8
aV\u8bcb
aV\u7825
aV\u9ab6
aV\u6c10
aV\u67e2
aV\u830b
asVgan2
p84
(lp85
V\u4ee0
asVgan3
p86
(lp87
V\u611f
aV\u8d76
aV\u6562
aV\u6a44
aV\u79c6
aV\u64c0
aV\u76af
aV\u8d11
asVgan1
p88
(lp89
V\u5e72
aV\u6746
aV\u7518
aV\u5c34
aV\u809d
aV\u7aff
aV\u4e7e
aV\u82f7
aV\u67d1
aV\u5769
aV\u75b3
aV\u6cd4
aV\u5fd3
aV\u7c93
aV\u5c32
aV\u7395
asVgang3
p90
(lp91
V\u6e2f
aV\u5c97
asVlia3
p92
(lp93
V\u4fe9
asVgan4
p94
(lp95
V\u8d63
aV\u6de6
aV\u7ec0
asVnang3
p96
(lp97
V\u9995
asVsun3
p98
(lp99
V\u635f
aV\u7b0b
aV\u69ab
aV\u7bb0
asVzuo4
p100
(lp101
V\u4f5c
aV\u505a
aV\u5ea7
aV\u5750
aV\u5511
aV\u9162
aV\u795a
aV\u67de
asVsun1
p102
(lp103
V\u5b59
aV\u836a
aV\u98e7
aV\u72f2
asVzuo2
p104
(lp105
V\u6628
aV\u7a13
asVzuo3
p106
(lp107
V\u5de6
aV\u4f50
aV\u5497
asVzuo1
p108
(lp109
V\u562c
asVfou3
p110
(lp111
V\u5426
aV\u7f36
asVzong1
p112
(lp113
V\u5b97
aV\u8e2a
aV\u68d5
aV\u9b03
aV\u5d4f
aV\u5d55
aV\u7a2f
aV\u8159
asV\u7a6f
(lp114
V\u7a6f
asVzong3
p115
(lp116
V\u603b
aV\u506c
asVqia1
p117
(lp118
V\u6390
asVduo1
p119
(lp120
V\u591a
aV\u5484
aV\u54c6
aV\u5689
asVqia3
p121
(lp122
V\u5361
aV\u8dd2
asVduo3
p123
(lp124
V\u8eb2
aV\u6735
aV\u579b
aV\u54da
aV\u9517
aV\u6305
aV\u619c
asVduo4
p125
(lp126
V\u5815
aV\u60f0
aV\u8235
aV\u8e31
aV\u5241
aV\u8dfa
aV\u70a7
aV\u70a8
aV\u5c2e
asVqia4
p127
(lp128
V\u6070
aV\u6d3d
asVzi3
p129
(lp130
V\u5b50
aV\u4ed4
aV\u7d2b
aV\u59ca
aV\u7c7d
aV\u6893
aV\u6ed3
aV\u7b2b
aV\u5470
aV\u8308
aV\u674d
aV\u8678
aV\u8a3f
asVcao1
p131
(lp132
V\u64cd
aV\u7cd9
asVrong2
p133
(lp134
V\u878d
aV\u5bb9
aV\u8363
aV\u6eb6
aV\u7194
aV\u7ed2
aV\u6995
aV\u84c9
aV\u8338
aV\u877e
aV\u9555
aV\u620e
aV\u5d58
aV\u72e8
aV\u9ddb
aV\u8923
asVzhai1
p135
(lp136
V\u6458
aV\u658b
asV\u5e64
(lp137
V\u5e64
asVzhai3
p138
(lp139
V\u7a84
aV\u9259
asVzhai2
p140
(lp141
V\u5b85
aV\u790b
asVmiao3
p142
(lp143
V\u79d2
aV\u6e3a
aV\u85d0
aV\u7f08
aV\u6dfc
aV\u9088
asVtai4
p144
(lp145
V\u592a
aV\u6001
aV\u6cf0
aV\u6c70
aV\u949b
aV\u80bd
aV\u8226
aV\u915e
asVliang4
p146
(lp147
V\u91cf
aV\u8f86
aV\u4eae
aV\u8c05
aV\u667e
aV\u60a2
asVliang3
p148
(lp149
V\u4e24
aV\u4e21
aV\u9b49
asVliang2
p150
(lp151
V\u826f
aV\u60ca
aV\u7cae
aV\u6881
aV\u51c9
aV\u7cb1
aV\u690b
asVzhou3
p152
(lp153
V\u8098
aV\u5e1a
aV\u776d
asVtai1
p154
(lp155
V\u80ce
aV\u5b61
asVqun2
p156
(lp157
V\u7fa4
aV\u88d9
aV\u5bad
asVzhan3
p158
(lp159
V\u5c55
aV\u5d2d
aV\u65a9
aV\u76cf
aV\u8f97
aV\u692b
aV\u6a4f
aV\u76bd
asV\u6ff5
(lp160
V\u6ff5
asVke4
p161
(lp162
V\u514b
aV\u5ba2
aV\u8bfe
aV\u523b
aV\u55d1
aV\u606a
aV\u6c2a
aV\u7f02
aV\u9a92
aV\u6e98
asVruan3
p163
(lp164
V\u8f6f
aV\u962e
aV\u670a
asVsen1
p165
(lp166
V\u68ee
aV\u692e
asVxiong1
p167
(lp168
V\u5144
aV\u51f6
aV\u80f8
aV\u5308
aV\u6c79
aV\u8a7e
asVxiong2
p169
(lp170
V\u96c4
aV\u718a
asVbing4
p171
(lp172
V\u5e76
aV\u75c5
aV\u6452
aV\u5e77
aV\u6824
aV\u9750
asVhuan2
p173
(lp174
V\u8fd8
aV\u73af
aV\u5bf0
aV\u6853
aV\u6d39
aV\u9b1f
aV\u7f33
aV\u5b1b
aV\u6356
aV\u74db
asVchang3
p175
(lp176
V\u5382
aV\u655e
aV\u6636
aV\u53b0
aV\u6c05
asVchang2
p177
(lp178
V\u957f
aV\u573a
aV\u5e38
aV\u507f
aV\u5c1d
aV\u80a0
aV\u88f3
aV\u5ae6
aV\u5f9c
aV\u5872
asVchang1
p179
(lp180
V\u660c
aV\u7316
aV\u5a3c
aV\u83d6
aV\u960a
aV\u4f25
aV\u7429
aV\u88ee
aV\u9f1a
asVnao2
p181
(lp182
V\u6320
aV\u6861
aV\u94d9
aV\u737f
aV\u9ad0
aV\u5476
asVchang4
p183
(lp184
V\u5531
aV\u7545
aV\u5021
aV\u6005
aV\u9b2f
asV\u7111
(lp185
V\u7111
asVquan2
p186
(lp187
V\u5168
aV\u6743
aV\u8343
aV\u6cc9
aV\u62f3
aV\u8be0
aV\u919b
aV\u75ca
aV\u8737
aV\u94e8
aV\u98a7
aV\u9b08
aV\u4f7a
aV\u8e21
aV\u8472
aV\u6e76
asVjing4
p188
(lp189
V\u5883
aV\u7ade
aV\u9759
aV\u5f84
aV\u51c0
aV\u955c
aV\u52b2
aV\u7adf
aV\u656c
aV\u9756
aV\u9753
aV\u75c9
aV\u80eb
aV\u5a67
aV\u8ff3
aV\u64cf
asV\u5715
(lp190
V\u5715
asVle5
p191
(lp192
V\u4e86
asVchui2
p193
(lp194
V\u5782
aV\u9524
aV\u69cc
aV\u6376
aV\u9672
aV\u68f0
aV\u6425
asVyan2
p195
(lp196
V\u7814
aV\u8a00
aV\u4e25
aV\u5ef6
aV\u6cbf
aV\u989c
aV\u5ca9
aV\u76d0
aV\u708e
aV\u598d
aV\u6a90
aV\u8712
aV\u960e
aV\u7b75
aV\u784f
aV\u5a2b
aV\u59f8
aV\u9e99
aV\u8ba0
aV\u57cf
aV\u5dd7
aV\u5869
aV\u6e7a
asVnuan3
p197
(lp198
V\u6696
asVjing3
p199
(lp200
V\u8b66
aV\u666f
aV\u4e95
aV\u9888
aV\u9631
aV\u70c3
aV\u61ac
aV\u5106
aV\u80bc
aV\u749f
aV\u74a5
aV\u66bb
asVlang3
p201
(lp202
V\u6717
aV\u5871
aV\u7860
aV\u9606
asVlang2
p203
(lp204
V\u5eca
aV\u90ce
aV\u72fc
aV\u8782
aV\u7405
aV\u8e09
aV\u9512
aV\u6994
aV\u83a8
aV\u5acf
aV\u90de
asVlang4
p205
(lp206
V\u6d6a
asVwai4
p207
(lp208
V\u5916
asVniu1
p209
(lp210
V\u599e
asVniu2
p211
(lp212
V\u725b
asVniu3
p213
(lp214
V\u7ebd
aV\u626d
aV\u94ae
aV\u5ff8
asVdai4
p215
(lp216
V\u4ee3
aV\u5e26
aV\u8d37
aV\u5f85
aV\u6234
aV\u888b
aV\u902e
aV\u9edb
aV\u6b86
aV\u7519
aV\u6020
aV\u73b3
aV\u5cb1
aV\u57ed
aV\u8eda
aV\u8fe8
aV\u6c4f
aV\u7ed0
aV\u5e2f
asVbo1
p217
(lp218
V\u6ce2
aV\u64ad
aV\u62e8
aV\u73bb
aV\u5265
aV\u83e0
aV\u94b5
aV\u7835
aV\u9c85
aV\u67ed
asVbo2
p219
(lp220
V\u535a
aV\u4f2f
aV\u52c3
aV\u8584
aV\u9a73
aV\u8236
aV\u6cca
aV\u640f
aV\u8116
aV\u818a
aV\u94c2
aV\u7b94
aV\u6822
aV\u6e24
aV\u4eb3
aV\u997d
aV\u5e1b
aV\u58c6
aV\u7934
aV\u88af
aV\u7921
aV\u8a96
aV\u5697
aV\u7c19
aV\u9ac6
aV\u632c
aV\u4fbc
aV\u9e41
aV\u50f0
asVsang1
p221
(lp222
V\u4e27
aV\u6851
asVbo4
p223
(lp224
V\u64d8
aV\u7c38
aV\u6a97
asVbo5
p225
(lp226
V\u5575
asVchan3
p227
(lp228
V\u4ea7
aV\u9610
aV\u94f2
aV\u8c04
aV\u9aa3
aV\u5e5d
asVgen1
p229
(lp230
V\u6839
aV\u8ddf
aV\u522f
asVti1
p231
(lp232
V\u68af
aV\u8e22
aV\u5254
aV\u9dc9
asVbang4
p233
(lp234
V\u9551
aV\u68d2
aV\u78c5
aV\u508d
aV\u8c24
aV\u868c
aV\u84a1
asVbang3
p235
(lp236
V\u699c
aV\u7ed1
aV\u8180
asVyan3
p237
(lp238
V\u6f14
aV\u773c
aV\u884d
aV\u63a9
aV\u5944
aV\u9b47
aV\u4fe8
aV\u9f39
aV\u5156
aV\u5043
aV\u53a3
aV\u7f68
aV\u5261
aV\u624a
aV\u9ee1
aV\u693c
aV\u5935
aV\u8758
aV\u90fe
aV\u565e
asVbang1
p239
(lp240
V\u5e2e
aV\u90a6
aV\u6886
aV\u6d5c
aV\u5e47
asVjuan4
p241
(lp242
V\u5377
aV\u5026
aV\u7737
aV\u52b5
aV\u7ee2
aV\u52ec
aV\u5e23
aV\u7367
aV\u9529
aV\u684a
aV\u9b33
aV\u72f7
asVjuan3
p243
(lp244
V\u57e2
asVjuan1
p245
(lp246
V\u6350
aV\u5a1f
aV\u6d93
aV\u9e43
aV\u954c
asVche4
p247
(lp248
V\u5f7b
aV\u64a4
aV\u8f99
aV\u63a3
aV\u6f88
aV\u8045
aV\u5c6e
aV\u52f6
aV\u77ae
aV\u577c
asV\u9bc2
(lp249
V\u9bc2
asVmou2
p250
(lp251
V\u8c0b
aV\u725f
aV\u7f2a
aV\u7738
aV\u936a
aV\u86d1
aV\u927e
asVche3
p252
(lp253
V\u626f
asVche1
p254
(lp255
V\u8f66
asVnai4
p256
(lp257
V\u8010
aV\u5948
aV\u8418
aV\u9f10
aV\u6e3f
asVshai4
p258
(lp259
V\u6652
asVlao3
p260
(lp261
V\u8001
aV\u4f6c
aV\u6f66
aV\u94d1
asVchuai3
p262
(lp263
V\u63e3
asVmiu4
p264
(lp265
V\u8c2c
asVnai2
p266
(lp267
V\u6468
asVnai3
p268
(lp269
V\u5976
aV\u4e43
aV\u59b3
aV\u6c16
aV\u5b2d
asV\u7bd2
(lp270
V\u7bd2
asV\u51d6
(lp271
V\u51d6
asV\u685b
(lp272
V\u685b
asVte4
p273
(lp274
V\u7279
aV\u5fd2
aV\u5fd1
aV\u94fd
aV\u615d
asVba3
p275
(lp276
V\u628a
aV\u9776
aV\u94af
asVchen1
p277
(lp278
V\u741b
aV\u90f4
aV\u778b
aV\u8b13
asVkong4
p279
(lp280
V\u63a7
asVchen3
p281
(lp282
V\u789c
aV\u9356
asVchen2
p283
(lp284
V\u9648
aV\u6c89
aV\u6668
aV\u5c18
aV\u81e3
aV\u8fb0
aV\u5ff1
aV\u5bb8
aV\u8c0c
aV\u6550
asVchen4
p285
(lp286
V\u886c
aV\u8d81
aV\u6987
aV\u8c36
aV\u9f80
aV\u56ab
asVcong1
p287
(lp288
V\u806a
aV\u5306
aV\u8471
aV\u56f1
aV\u9aa2
aV\u9350
aV\u679e
aV\u7481
aV\u82c1
aV\u60a4
aV\u7127
aV\u7bf5
aV\u9a18
asVdao4
p289
(lp290
V\u5230
aV\u9053
aV\u76d7
aV\u7a3b
aV\u60bc
aV\u74d9
asVbing3
p291
(lp292
V\u997c
aV\u4e19
aV\u70b3
aV\u67c4
aV\u79c9
aV\u7980
aV\u7a89
aV\u661e
asVpan4
p293
(lp294
V\u5224
aV\u53db
aV\u76fc
aV\u7554
aV\u62da
aV\u6cee
aV\u947b
aV\u88a2
aV\u9816
asVku4
p295
(lp296
V\u5e93
aV\u9177
aV\u88e4
aV\u7ed4
asVku3
p297
(lp298
V\u82e6
asVdao1
p299
(lp300
V\u5200
aV\u6c18
aV\u5fc9
aV\u91d6
asVlei4
p301
(lp302
V\u7c7b
aV\u7d2f
aV\u6cea
aV\u808b
aV\u98a3
aV\u790c
aV\u79b7
asVlei5
p303
(lp304
V\u561e
asVkuang2
p305
(lp306
V\u72c2
aV\u8bf3
aV\u6282
asVkuang3
p307
(lp308
V\u593c
asVsu4
p309
(lp310
V\u8bc9
aV\u901f
aV\u7d20
aV\u5851
aV\u5bbf
aV\u8083
aV\u6eaf
aV\u7c9f
aV\u84ff
aV\u612b
aV\u5919
aV\u7c0c
aV\u7aa3
aV\u50f3
aV\u612c
aV\u9e54
aV\u5083
aV\u55c9
asVsu2
p311
(lp312
V\u4fd7
asVkuang4
p313
(lp314
V\u51b5
aV\u77ff
aV\u6846
aV\u65f7
aV\u909d
aV\u7736
aV\u945b
aV\u7ea9
aV\u8d36
aV\u7d56
asVnan1
p315
(lp316
V\u56e1
asV\u74f8
(lp317
V\u74f8
asVgun4
p318
(lp319
V\u68cd
asVnan2
p320
(lp321
V\u96be
aV\u5357
aV\u7537
aV\u5583
aV\u6960
aV\u597b
asVgun3
p322
(lp323
V\u6eda
aV\u4e28
aV\u886e
aV\u8f8a
aV\u638d
aV\u78d9
aV\u84d8
asVgun1
p324
(lp325
V\u88e9
asVma1
p326
(lp327
V\u5988
aV\u5b24
asVnve4
p328
(lp329
V\u8650
aV\u759f
aV\u8c11
asVning2
p330
(lp331
V\u5b81
aV\u51dd
aV\u67e0
aV\u62e7
aV\u72de
aV\u549b
aV\u5bcd
aV\u5bdc
asVhuang3
p332
(lp333
V\u8c0e
aV\u6643
aV\u5e4c
aV\u604d
aV\u6ec9
aV\u6033
asVma3
p334
(lp335
V\u9a6c
aV\u7801
aV\u739b
aV\u8682
asVhuang1
p336
(lp337
V\u8352
aV\u614c
aV\u8093
aV\u5843
asVhei1
p338
(lp339
V\u9ed1
aV\u563f
aV\u9ed2
asVxuan1
p340
(lp341
V\u5ba3
aV\u8f69
aV\u55a7
aV\u6684
aV\u8431
aV\u714a
aV\u688b
aV\u5847
aV\u8c16
aV\u777b
asVzui4
p342
(lp343
V\u6700
aV\u7f6a
aV\u9189
asVxuan3
p344
(lp345
V\u9009
aV\u6685
asVxuan2
p346
(lp347
V\u60ac
aV\u65cb
aV\u7384
aV\u6f29
aV\u7487
aV\u9e6e
aV\u5ad9
aV\u7401
aV\u8701
aV\u59b6
aV\u74bf
asVnian2
p348
(lp349
V\u5e74
aV\u7c98
aV\u9ecf
aV\u9cb6
aV\u62c8
asVxuan4
p350
(lp351
V\u70ab
aV\u7729
aV\u7eda
aV\u6e32
aV\u94c9
aV\u6966
aV\u955f
aV\u6621
aV\u98b4
asVe4
p352
(lp353
V\u6076
aV\u5443
aV\u997f
aV\u904f
aV\u80fa
aV\u5384
aV\u5669
aV\u627c
aV\u9cc4
aV\u6115
aV\u9102
aV\u989a
aV\u57a9
aV\u8f6d
aV\u8c14
aV\u816d
aV\u9537
aV\u843c
aV\u9e57
aV\u50eb
aV\u582e
aV\u6439
aV\u7846
aV\u6aee
asVtiao4
p354
(lp355
V\u8df3
aV\u773a
aV\u6713
aV\u7c9c
asVxun4
p356
(lp357
V\u8baf
aV\u8bad
aV\u8fc5
aV\u900a
aV\u6b89
aV\u5f87
aV\u6c5b
aV\u8548
aV\u57c8
aV\u5dfd
aV\u4f28
aV\u72e5
asVxun2
p358
(lp359
V\u8be2
aV\u5bfb
aV\u5faa
aV\u5de1
aV\u65ec
aV\u9a6f
aV\u5ccb
aV\u8368
aV\u9c9f
aV\u8340
aV\u6d35
aV\u6f43
aV\u7543
aV\u6042
aV\u686a
aV\u69c6
aV\u6326
aV\u9c4f
aV\u6d54
asVxun1
p360
(lp361
V\u52cb
aV\u85b0
aV\u91ba
aV\u57d9
aV\u7104
aV\u58e6
aV\u718f
aV\u52f2
aV\u66db
asVwen2
p362
(lp363
V\u6587
aV\u95fb
aV\u7eb9
aV\u868a
aV\u96ef
aV\u7086
aV\u95c5
aV\u95e6
aV\u960c
asVhou4
p364
(lp365
V\u540e
aV\u5019
aV\u539a
aV\u9005
aV\u9c8e
aV\u5820
asV\u6364
(lp366
V\u6364
asVnin3
p367
(lp368
V\u62f0
asVnin2
p369
(lp370
V\u60a8
asVer2
p371
(lp372
V\u800c
aV\u513f
aV\u9e38
aV\u8f00
aV\u96ad
aV\u9651
aV\u5150
asVer3
p373
(lp374
V\u5c14
aV\u8033
aV\u9975
aV\u6d31
aV\u8fe9
aV\u73e5
aV\u5c13
asVrao2
p375
(lp376
V\u9976
aV\u86f2
asVrao3
p377
(lp378
V\u6270
aV\u5a06
asVde2
p379
(lp380
V\u5f97
aV\u5fb7
aV\u5fb3
aV\u951d
aV\u6dc2
asVkun4
p381
(lp382
V\u56f0
asVzha1
p383
(lp384
V\u624e
aV\u6e23
aV\u55b3
aV\u6942
aV\u6313
aV\u9f44
aV\u63f8
asVpou1
p385
(lp386
V\u5256
asVpou2
p387
(lp388
V\u952b
aV\u6299
aV\u638a
aV\u6294
asVpou3
p389
(lp390
V\u5a44
aV\u5ecd
asVsou1
p391
(lp392
V\u641c
aV\u998a
aV\u55d6
aV\u98d5
aV\u5ecb
aV\u635c
aV\u953c
asVshui4
p393
(lp394
V\u7a0e
aV\u7761
aV\u8715
aV\u7971
aV\u6d97
aV\u6d9a
asVsou3
p395
(lp396
V\u85ae
aV\u64de
aV\u53df
aV\u778d
asV\u5c21
(lp397
V\u5c21
asVsou4
p398
(lp399
V\u55fd
asV\u6836
(lp400
V\u6836
asVjiu1
p401
(lp402
V\u7a76
aV\u7ea0
aV\u9e20
aV\u63ea
aV\u557e
aV\u8f47
aV\u9604
asVou4
p403
(lp404
V\u6ca4
asV\u7abd
(lp405
V\u7abd
asVzhua3
p406
(lp407
V\u722a
asVdang1
p408
(lp409
V\u5f53
aV\u94db
aV\u88c6
aV\u5105
asVfeng2
p410
(lp411
V\u9022
aV\u7f1d
aV\u51af
aV\u7d98
aV\u5906
asVdang3
p412
(lp413
V\u515a
aV\u6863
aV\u6321
aV\u8c20
asVzuan4
p414
(lp415
V\u94bb
aV\u6525
aV\u945a
asVdang4
p416
(lp417
V\u8361
aV\u5b95
aV\u6c39
aV\u83ea
aV\u51fc
aV\u5735
asVti2
p418
(lp419
V\u63d0
aV\u9898
aV\u8e44
aV\u557c
aV\u7f07
aV\u9e48
aV\u918d
aV\u5a9e
aV\u9357
aV\u8351
aV\u55c1
aV\u7445
aV\u504d
aV\u8e4f
aV\u7ee8
asVbiao4
p420
(lp421
V\u9cd4
asV\u6150
(lp422
V\u6150
asVtui2
p423
(lp424
V\u9893
aV\u5f1a
asVbiao1
p425
(lp426
V\u6807
aV\u98d9
aV\u9556
aV\u5f6a
aV\u9573
aV\u98da
aV\u98c7
aV\u98d1
aV\u9a89
aV\u85e8
aV\u730b
aV\u700c
asVbiao3
p427
(lp428
V\u8868
aV\u5a4a
aV\u88f1
asVcu1
p429
(lp430
V\u7c97
asVhui4
p431
(lp432
V\u4f1a
aV\u6c47
aV\u60e0
aV\u7ed8
aV\u6167
aV\u5349
aV\u8d3f
aV\u8bb3
aV\u5f57
aV\u6666
aV\u835f
aV\u79fd
aV\u8559
aV\u70e9
aV\u8bf2
aV\u5599
aV\u7fd9
aV\u6193
aV\u66b3
aV\u5136
aV\u5f5a
aV\u87ea
aV\u7bf2
aV\u6075
asVhui2
p433
(lp434
V\u56de
aV\u8334
aV\u86d4
aV\u6d04
aV\u5efb
aV\u9025
aV\u8716
aV\u56d8
asVhui3
p435
(lp436
V\u6bc1
aV\u6094
aV\u8770
aV\u6bc7
aV\u867a
aV\u8294
asVjiao4
p437
(lp438
V\u6559
aV\u8f83
aV\u53eb
aV\u8f7f
aV\u9175
aV\u7a96
aV\u91ae
aV\u6ed8
aV\u5ce4
aV\u91b6
aV\u5fbc
aV\u6f50
aV\u73d3
asVhui1
p439
(lp440
V\u6325
aV\u6062
aV\u7070
aV\u8f89
aV\u5fbd
aV\u6656
aV\u9ebe
aV\u8bd9
aV\u7fda
aV\u9693
aV\u96b3
aV\u62fb
asVxue2
p441
(lp442
V\u5b66
aV\u7a74
aV\u5da8
asVxue3
p443
(lp444
V\u96ea
aV\u9cd5
asVzi4
p445
(lp446
V\u81ea
aV\u5b57
aV\u6e0d
aV\u6063
aV\u7278
aV\u7726
asVxue1
p447
(lp448
V\u524a
aV\u9774
aV\u859b
asV\u6764
(lp449
V\u6764
asVxue4
p450
(lp451
V\u8b1e
asVzi1
p452
(lp453
V\u8d44
aV\u54a8
aV\u5179
aV\u6ecb
aV\u59ff
aV\u5b5c
aV\u5b56
aV\u753e
aV\u9e5a
aV\u5b73
aV\u5472
aV\u7f01
aV\u9f87
aV\u55de
aV\u9531
aV\u9cbb
aV\u8f8e
aV\u5b76
aV\u7386
aV\u6dc4
aV\u9aed
aV\u922d
aV\u8d40
aV\u9f4d
aV\u83d1
asVkui3
p454
(lp455
V\u8dec
asVkui2
p456
(lp457
V\u8475
aV\u594e
aV\u9b41
aV\u777d
aV\u9035
aV\u9997
aV\u55b9
aV\u63c6
aV\u5914
aV\u9108
aV\u9368
asVkui1
p458
(lp459
V\u76d4
aV\u7aa5
aV\u5cbf
aV\u95da
asV\u6e6a
(lp460
V\u6e6a
asVhen2
p461
(lp462
V\u75d5
aV\u62eb
asVkui4
p463
(lp464
V\u6e83
aV\u9988
aV\u6127
aV\u7bd1
aV\u8069
aV\u559f
aV\u6a3b
aV\u993d
aV\u9400
aV\u7786
aV\u6126
aV\u9a29
aV\u5abf
asVjiong3
p465
(lp466
V\u7a98
aV\u8fe5
aV\u70af
aV\u56e7
aV\u8927
aV\u6cc2
aV\u70f1
aV\u7d97
asVka4
p467
(lp468
V\u9ac2
asVjiong1
p469
(lp470
V\u57db
asV\u5e92
(lp471
V\u5e92
asVzha4
p472
(lp473
V\u70b8
aV\u8bc8
aV\u548b
aV\u4e4d
aV\u69a8
aV\u6805
aV\u86b1
aV\u54a4
aV\u75c4
aV\u6ea0
asV\u8b09
(lp474
V\u8b09
asV\u91fb
(lp475
V\u91fb
asV\u567a
(lp476
V\u567a
asVdong3
p477
(lp478
V\u8463
aV\u61c2
aV\u7bbd
asVdong1
p479
(lp480
V\u4e1c
aV\u51ac
aV\u549a
aV\u6c21
aV\u9e2b
aV\u6c2d
asVma2
p481
(lp482
V\u9ebb
aV\u87c6
aV\u8534
aV\u75f2
aV\u87c7
asVma5
p483
(lp484
V\u5417
aV\u561b
asVma4
p485
(lp486
V\u9a82
aV\u72b8
aV\u551b
aV\u6769
asVdong4
p487
(lp488
V\u52a8
aV\u6d1e
aV\u51bb
aV\u680b
aV\u80f4
aV\u50cd
asVzhou4
p489
(lp490
V\u5b99
aV\u5492
aV\u76b1
aV\u663c
aV\u7ec9
aV\u80c4
aV\u7ea3
aV\u7c40
asVchuan1
p491
(lp492
V\u7a7f
aV\u5ddd
aV\u6c1a
asVgai3
p493
(lp494
V\u6539
asVwo3
p495
(lp496
V\u6211
aV\u5a51
asVao4
p497
(lp498
V\u5965
aV\u6fb3
aV\u50b2
aV\u5773
aV\u61ca
asVao3
p499
(lp500
V\u62d7
aV\u8884
aV\u629d
aV\u5aaa
asVao2
p501
(lp502
V\u71ac
aV\u9ccc
aV\u55f7
aV\u7ff1
aV\u9068
aV\u6556
aV\u9a9c
aV\u87af
aV\u93d6
aV\u7352
aV\u7488
aV\u5d85
aV\u53ab
aV\u78dd
aV\u969e
asVao1
p503
(lp504
V\u51f9
aV\u8eea
asVtie3
p505
(lp506
V\u94c1
aV\u9421
aV\u9507
asVla4
p507
(lp508
V\u814a
aV\u8fa3
aV\u8721
aV\u524c
aV\u760c
aV\u9bfb
asVbai4
p509
(lp510
V\u8d25
aV\u62dc
aV\u5457
aV\u7cba
aV\u7a17
asV\u691b
(lp511
V\u691b
asVtie1
p512
(lp513
V\u8d34
aV\u5e16
aV\u841c
aV\u546b
asVla1
p514
(lp515
V\u62c9
aV\u5783
aV\u56b9
asVla2
p516
(lp517
V\u908b
asVla3
p518
(lp519
V\u5587
asVliao2
p520
(lp521
V\u7597
aV\u804a
aV\u50da
aV\u5be5
aV\u8fbd
aV\u7f2d
aV\u5bee
aV\u9563
aV\u7360
aV\u9e69
aV\u5639
aV\u66b8
aV\u9e68
aV\u7c1d
aV\u71ae
aV\u7499
asVliao3
p522
(lp523
V\u71ce
aV\u77ad
asVliao1
p524
(lp525
V\u64a9
asV\u5625
(lp526
V\u5625
asV\u4fa4
(lp527
V\u4fa4
asVliao4
p528
(lp529
V\u6599
aV\u5ed6
aV\u6482
aV\u7093
asVwang4
p530
(lp531
V\u671b
aV\u5fd8
aV\u65fa
aV\u5984
asVmang2
p532
(lp533
V\u5fd9
aV\u76f2
aV\u8292
aV\u832b
aV\u6c13
aV\u6767
aV\u9f06
aV\u9099
asVmang3
p534
(lp535
V\u83bd
aV\u87d2
aV\u880e
asVjian3
p536
(lp537
V\u51cf
aV\u7b80
aV\u68c0
aV\u526a
aV\u6361
aV\u67ec
aV\u78b1
aV\u4fed
aV\u62e3
aV\u7751
aV\u950f
aV\u88e5
aV\u622c
aV\u8e47
aV\u9417
aV\u8b07
aV\u7fe6
aV\u7b15
aV\u691c
aV\u9c14
asVjian1
p538
(lp539
V\u95f4
aV\u76d1
aV\u575a
aV\u5c16
aV\u517c
aV\u8270
aV\u80a9
aV\u5978
aV\u714e
aV\u83c5
aV\u7f04
aV\u7b3a
aV\u6b7c
aV\u9ca3
aV\u9e63
aV\u97af
aV\u71b8
aV\u728d
aV\u791b
aV\u8c5c
aV\u9e89
aV\u620b
aV\u788a
aV\u730f
aV\u63c3
aV\u56cf
aV\u7bef
aV\u83fa
asVtie4
p540
(lp541
V\u992e
asVjian4
p542
(lp543
V\u4ef6
aV\u5efa
aV\u89c1
aV\u5065
aV\u952e
aV\u6e10
aV\u9274
aV\u8230
aV\u5251
aV\u8350
aV\u8df5
aV\u7bad
aV\u8d31
aV\u69db
aV\u6e85
aV\u8171
aV\u6da7
aV\u50ed
aV\u6bfd
aV\u996f
aV\u67a7
aV\u8c0f
aV\u682b
aV\u8e3a
aV\u7e5d
asVbin4
p544
(lp545
V\u6ba1
aV\u6448
aV\u9b13
aV\u50a7
aV\u8191
asV\u709e
(lp546
V\u709e
asVbin1
p547
(lp548
V\u5bbe
aV\u6ee8
aV\u6fd2
aV\u7f24
aV\u69df
aV\u658c
aV\u5f6c
aV\u73a2
aV\u9554
aV\u6c43
aV\u7478
asVkuan3
p549
(lp550
V\u6b3e
asVnou4
p551
(lp552
V\u8028
aV\u941e
aV\u9392
asVkuan1
p553
(lp554
V\u5bbd
aV\u9acb
aV\u5bdb
asVta4
p555
(lp556
V\u8e0f
aV\u6c93
aV\u631e
aV\u8e4b
aV\u69bb
aV\u55d2
aV\u8df6
aV\u9062
aV\u736d
aV\u9cce
aV\u5683
aV\u6f2f
aV\u8e79
aV\u9f98
aV\u95fc
asVzhuan1
p557
(lp558
V\u4e13
aV\u7816
aV\u5c02
aV\u819e
aV\u750e
asVben3
p559
(lp560
V\u672c
aV\u82ef
aV\u755a
asVzhuan3
p561
(lp562
V\u8f6c
asVzhuan4
p563
(lp564
V\u8d5a
aV\u64b0
aV\u7bc6
aV\u9994
aV\u7bf9
aV\u556d
aV\u581f
asVta1
p565
(lp566
V\u4ed6
aV\u5b83
aV\u5979
aV\u584c
aV\u7942
asVfeng1
p567
(lp568
V\u98ce
aV\u4e30
aV\u5c01
aV\u5cf0
aV\u75af
aV\u8702
aV\u950b
aV\u8bbd
aV\u67ab
aV\u70fd
aV\u6ca3
aV\u781c
aV\u5d36
aV\u71a2
aV\u51ee
asVta3
p569
(lp570
V\u5854
aV\u5896
asVchi2
p571
(lp572
V\u6301
aV\u6c60
aV\u8fdf
aV\u5319
aV\u9a70
aV\u832c
aV\u5f1b
aV\u7bea
aV\u5880
aV\u8e1f
aV\u9045
aV\u8d8d
aV\u86b3
aV\u905f
aV\u577b
aV\u7afe
asVchi3
p573
(lp574
V\u5c3a
aV\u4f88
aV\u9f7f
aV\u803b
aV\u8c49
aV\u544e
aV\u892b
aV\u640b
aV\u8687
asVluo2
p575
(lp576
V\u903b
aV\u87ba
aV\u9523
aV\u841d
aV\u9aa1
aV\u7321
aV\u7ba9
aV\u6924
aV\u9559
aV\u8502
aV\u8999
asVchi1
p577
(lp578
V\u5403
aV\u75f4
aV\u55e4
aV\u7b1e
aV\u54e7
aV\u5f68
aV\u87ad
aV\u86a9
aV\u9ed0
asVchi4
p579
(lp580
V\u8d64
aV\u65a5
aV\u7fc5
aV\u70bd
aV\u557b
aV\u53f1
aV\u996c
aV\u6555
aV\u8e05
aV\u761b
aV\u75f8
aV\u89e2
aV\u9dd8
asV\u624c
(lp581
V\u624c
asVwan2
p582
(lp583
V\u5b8c
aV\u73a9
aV\u4e38
aV\u987d
aV\u70f7
aV\u7ea8
asVwan3
p584
(lp585
V\u665a
aV\u7897
aV\u633d
aV\u5a49
aV\u6d63
aV\u5b9b
aV\u60cb
aV\u742c
aV\u9ca9
aV\u7696
aV\u83c0
aV\u7efe
aV\u6669
aV\u8e20
aV\u6900
aV\u7579
asVwan1
p586
(lp587
V\u6e7e
aV\u5f2f
aV\u873f
aV\u8c4c
aV\u525c
asVwan4
p588
(lp589
V\u4e07
aV\u8155
aV\u534d
aV\u6365
aV\u8ca6
aV\u5350
aV\u4ef4
asV\u9af8
(lp590
V\u9af8
asVdeng4
p591
(lp592
V\u9093
aV\u51f3
aV\u77aa
aV\u8e6c
aV\u6ac8
aV\u78f4
asVdeng1
p593
(lp594
V\u767b
aV\u706f
aV\u956b
aV\u5654
asVneng2
p595
(lp596
V\u80fd
asVdeng3
p597
(lp598
V\u7b49
aV\u6225
aV\u6729
asV\u67a4
(lp599
V\u67a4
asVsi3
p600
(lp601
V\u6b7b
asVsi1
p602
(lp603
V\u53f8
aV\u65af
aV\u601d
aV\u79c1
aV\u4e1d
aV\u6495
aV\u5636
aV\u53ae
aV\u549d
aV\u53b6
aV\u6f8c
aV\u8652
aV\u86f3
aV\u9e36
aV\u7f73
aV\u98d4
aV\u92d6
aV\u5072
asVshuo1
p604
(lp605
V\u8bf4
asVshuo4
p606
(lp607
V\u7855
aV\u70c1
aV\u6714
aV\u94c4
aV\u5981
aV\u84b4
aV\u6b36
asVsi4
p608
(lp609
V\u56db
aV\u4f3c
aV\u8086
aV\u9972
aV\u5bfa
aV\u8d50
aV\u4f3a
aV\u7940
aV\u55e3
aV\u5df3
aV\u4fdf
aV\u9a77
aV\u6d98
aV\u801c
aV\u6cd7
aV\u4f40
aV\u5155
asVyue1
p610
(lp611
V\u7ea6
aV\u66f0
aV\u66f1
asVjin4
p612
(lp613
V\u8fdb
aV\u8fd1
aV\u7981
aV\u664b
aV\u6d78
aV\u70ec
aV\u9773
aV\u5664
aV\u74b6
aV\u7468
aV\u7f19
aV\u6783
aV\u6fc5
aV\u5bd6
aV\u568d
aV\u763d
asVshi1
p614
(lp615
V\u65bd
aV\u5931
aV\u5e08
aV\u5c38
aV\u8bd7
aV\u6e7f
aV\u72ee
aV\u8768
aV\u8937
aV\u84cd
aV\u8979
aV\u8479
aV\u9cba
aV\u545e
asVqian1
p616
(lp617
V\u7b7e
aV\u5343
aV\u8fc1
aV\u7275
aV\u94c5
aV\u8c26
aV\u60ad
aV\u7f9f
aV\u4edf
aV\u9a9e
aV\u9621
aV\u828a
aV\u6266
aV\u8930
aV\u6ab6
aV\u6106
aV\u6434
aV\u7c81
aV\u948e
aV\u9b1c
asVen1
p618
(lp619
V\u6069
aV\u84bd
asV\u5af2
(lp620
V\u5af2
asVen4
p621
(lp622
V\u6441
asVpin3
p623
(lp624
V\u54c1
aV\u6980
asVpin2
p625
(lp626
V\u9891
aV\u8d2b
aV\u5ad4
aV\u98a6
aV\u56ac
asVpin1
p627
(lp628
V\u62fc
aV\u59d8
asV\u53fe
(lp629
V\u53fe
asVpin4
p630
(lp631
V\u8058
aV\u725d
asVban4
p632
(lp633
V\u529e
aV\u534a
aV\u4f34
aV\u626e
aV\u62cc
aV\u7eca
aV\u74e3
aV\u6e74
aV\u9261
aV\u977d
asV\u7902
(lp634
V\u7902
asVban1
p635
(lp636
V\u73ed
aV\u822c
aV\u9881
aV\u642c
aV\u6591
aV\u6273
aV\u7622
asVfou4
p637
(lp638
V\u7ace
asVban3
p639
(lp640
V\u7248
aV\u677f
aV\u962a
aV\u8228
aV\u94a3
asVpang2
p641
(lp642
V\u65c1
aV\u5e9e
aV\u8783
aV\u5f77
aV\u9004
aV\u5390
aV\u823d
asVsui2
p643
(lp644
V\u968f
aV\u968b
asV\u718d
(lp645
V\u718d
asVceng1
p646
(lp647
V\u66fd
asVbei4
p648
(lp649
V\u88ab
aV\u5907
aV\u8d1d
aV\u500d
aV\u80cc
aV\u8f88
aV\u6096
aV\u60eb
aV\u7119
aV\u72c8
aV\u84d3
aV\u94a1
aV\u5b5b
aV\u8919
aV\u97b4
asVda5
p650
(lp651
V\u7629
asVzhe3
p652
(lp653
V\u8005
aV\u8d6d
aV\u556b
asV\u7112
(lp654
V\u7112
asVzhe4
p655
(lp656
V\u8fd9
aV\u6d59
aV\u8517
aV\u9e67
asVda2
p657
(lp658
V\u8fbe
aV\u7b54
aV\u59b2
aV\u9791
aV\u977c
aV\u7b2a
aV\u9039
aV\u8359
aV\u601b
aV\u8a5a
asVda3
p659
(lp660
V\u6253
asVchai2
p661
(lp662
V\u67f4
aV\u4faa
aV\u8c7a
asVdui1
p663
(lp664
V\u5806
asVzan4
p665
(lp666
V\u6682
aV\u8d5e
aV\u74d2
aV\u933e
aV\u56cb
asV\u7922
(lp667
V\u7922
asV\u87a9
(lp668
V\u87a9
asVwo1
p669
(lp670
V\u7a9d
aV\u6da1
aV\u83b4
asVzhao2
p671
(lp672
V\u7740
asVshi3
p673
(lp674
V\u4f7f
aV\u59cb
aV\u53f2
aV\u9a76
aV\u5c4e
aV\u77e2
aV\u5158
asV\u9bb1
(lp675
V\u9bb1
asVzhong3
p676
(lp677
V\u79cd
aV\u80bf
aV\u8e35
aV\u51a2
aV\u5c30
asVguang4
p678
(lp679
V\u901b
aV\u6844
asVzhong1
p680
(lp681
V\u4e2d
aV\u7ec8
aV\u949f
aV\u5fe0
aV\u8877
aV\u76c5
aV\u5fea
aV\u953a
aV\u87bd
aV\u822f
asVguang3
p682
(lp683
V\u5e7f
aV\u72b7
aV\u5e83
asVzhong4
p684
(lp685
V\u91cd
aV\u4f17
aV\u4ef2
aV\u5045
aV\u72c6
aV\u7b57
aV\u869b
asVguang1
p686
(lp687
V\u5149
aV\u80f1
aV\u54a3
aV\u4f8a
aV\u50d9
aV\u709b
asVding1
p688
(lp689
V\u4e01
aV\u76ef
aV\u9489
aV\u53ee
aV\u4ec3
asVzai1
p690
(lp691
V\u707e
aV\u683d
aV\u54c9
aV\u6e3d
asVwen4
p692
(lp693
V\u95ee
aV\u6c76
aV\u7d0a
aV\u63fe
asVzai3
p694
(lp695
V\u5bb0
aV\u5d3d
asVzai4
p696
(lp697
V\u5728
aV\u518d
aV\u8f7d
aV\u6257
asVwen3
p698
(lp699
V\u7a33
aV\u543b
aV\u520e
aV\u8117
aV\u5461
aV\u7a4f
asVluan2
p700
(lp701
V\u631b
aV\u5ce6
aV\u5b6a
aV\u92ae
aV\u9e3e
aV\u5a08
aV\u683e
aV\u8114
aV\u864a
aV\u6ee6
asVwen1
p702
(lp703
V\u6e29
aV\u761f
aV\u8f3c
asVpan3
p704
(lp705
V\u5762
aV\u5964
asVpan2
p706
(lp707
V\u76d8
aV\u78d0
aV\u87e0
aV\u69c3
aV\u97b6
aV\u8dd8
asVwu1
p708
(lp709
V\u6c61
aV\u5c4b
aV\u4e4c
aV\u5deb
aV\u545c
aV\u90ac
aV\u6c5a
aV\u7bbc
aV\u6747
aV\u7466
aV\u5a89
aV\u7a8f
asVhuai2
p710
(lp711
V\u6000
aV\u5f8a
aV\u8e1d
aV\u6dee
aV\u69d0
aV\u61d0
asVzhai4
p712
(lp713
V\u503a
aV\u5be8
aV\u7826
asVmeng2
p714
(lp715
V\u76df
aV\u8499
aV\u840c
aV\u6aac
aV\u6726
aV\u867b
aV\u82ce
aV\u5e6a
aV\u66da
aV\u8268
aV\u6c0b
aV\u77a2
aV\u7374
aV\u511a
asVmeng3
p716
(lp717
V\u731b
aV\u9530
aV\u8722
aV\u61f5
aV\u8813
aV\u9bed
aV\u52d0
asVmeng4
p718
(lp719
V\u68a6
aV\u5b5f
aV\u5923
asVlin2
p720
(lp721
V\u6797
aV\u4e34
aV\u90bb
aV\u7433
aV\u6dcb
aV\u9e9f
aV\u9716
aV\u78f7
aV\u9074
aV\u9cde
aV\u5d99
aV\u7cbc
aV\u75f3
aV\u96a3
aV\u7498
aV\u8f9a
aV\u7036
aV\u6f7e
aV\u93fb
asVze2
p722
(lp723
V\u5219
aV\u8d23
aV\u62e9
aV\u6cfd
aV\u9c97
aV\u5567
aV\u8b2e
aV\u5e3b
aV\u8ace
asVfang2
p724
(lp725
V\u623f
aV\u9632
aV\u80aa
aV\u59a8
aV\u9c82
aV\u9cd1
asVfang1
p726
(lp727
V\u65b9
aV\u574a
aV\u82b3
aV\u90a1
aV\u678b
aV\u94ab
asVcu4
p728
(lp729
V\u4fc3
aV\u918b
aV\u7c07
aV\u731d
aV\u8e74
aV\u8e59
aV\u69ed
aV\u6ba7
aV\u762f
aV\u8d97
aV\u8e27
asV\u7dd5
(lp730
V\u7dd5
asVshe1
p731
(lp732
V\u5962
aV\u8f0b
aV\u8d4a
aV\u8b47
aV\u8cd6
asVze4
p733
(lp734
V\u4ec4
aV\u6603
aV\u6617
asVfang4
p735
(lp736
V\u653e
asVan1
p737
(lp738
V\u5b89
aV\u978d
aV\u6c28
aV\u8c19
aV\u6849
aV\u5eb5
aV\u9e4c
aV\u94f5
aV\u99a3
aV\u8164
aV\u75f7
asV\u820e
(lp739
V\u820e
asV\u705c
(lp740
V\u705c
asVsao1
p741
(lp742
V\u8258
aV\u9a9a
aV\u6414
aV\u81ca
aV\u7619
aV\u7f2b
aV\u9a12
aV\u9ccb
asVmai4
p743
(lp744
V\u5356
aV\u9ea6
aV\u8fc8
aV\u8109
aV\u4f45
aV\u58f2
asVsao3
p745
(lp746
V\u626b
aV\u5ac2
asVpen2
p747
(lp748
V\u76c6
asVmai3
p749
(lp750
V\u4e70
aV\u562a
asVmai2
p751
(lp752
V\u57cb
aV\u973e
asVji4
p753
(lp754
V\u8ba1
aV\u6d4e
aV\u9645
aV\u8bb0
aV\u6280
aV\u7eaa
aV\u7ee7
aV\u5b63
aV\u65e2
aV\u5242
aV\u5bc4
aV\u66a8
aV\u5fcc
aV\u5993
aV\u5bc2
aV\u796d
aV\u4f0e
aV\u5180
aV\u89ca
aV\u60b8
aV\u84df
aV\u9aa5
aV\u9afb
aV\u9cab
aV\u7a37
aV\u9701
aV\u830d
aV\u846a
aV\u82b0
aV\u66c1
aV\u6ab5
aV\u9b86
aV\u860e
aV\u54dc
aV\u9f4c
asVji2
p755
(lp756
V\u53ca
aV\u96c6
aV\u5373
aV\u7ea7
aV\u51fb
aV\u6781
aV\u6025
aV\u5409
aV\u75be
aV\u7c4d
aV\u8f91
aV\u573e
aV\u68d8
aV\u810a
aV\u5ac9
aV\u6c72
aV\u4e9f
aV\u5c8c
aV\u7620
aV\u7b08
aV\u6483
aV\u4f76
aV\u696b
aV\u6b9b
aV\u9353
aV\u59de
aV\u857a
aV\u84ba
aV\u5849
aV\u6e52
aV\u6f57
aV\u9e61
aV\u5fe3
aV\u96e7
aV\u5d74
asVji3
p757
(lp758
V\u5df1
aV\u6324
aV\u621f
aV\u9e82
aV\u7398
aV\u64a0
aV\u6cf2
aV\u72b1
asVzhe1
p759
(lp760
V\u906e
aV\u6663
asVji1
p761
(lp762
V\u673a
aV\u57fa
aV\u51e0
aV\u6fc0
aV\u79ef
aV\u8ff9
aV\u7ee9
aV\u9e21
aV\u808c
aV\u77f6
aV\u9965
aV\u59ec
aV\u7a3d
aV\u54ad
aV\u8dfb
aV\u7b95
aV\u7f81
aV\u7578
aV\u53fd
aV\u5527
aV\u8ba5
aV\u7391
aV\u757f
aV\u5c50
aV\u7284
aV\u9f51
aV\u7b04
aV\u4e69
aV\u866e
aV\u8989
aV\u898a
aV\u520f
aV\u96ae
aV\u9c3f
aV\u9ea1
aV\u8d4d
aV\u55d8
aV\u671e
aV\u8b64
aV\u97bf
asVchong4
p763
(lp764
V\u94f3
asVchong1
p765
(lp766
V\u5145
aV\u51b2
aV\u5fe1
aV\u8202
aV\u61a7
aV\u7fc0
asVchong3
p767
(lp768
V\u5ba0
asVchong2
p769
(lp770
V\u866b
aV\u5d07
aV\u8327
asVqu1
p771
(lp772
V\u533a
aV\u66f2
aV\u8d8b
aV\u9a71
aV\u5c48
aV\u8eaf
aV\u5c96
aV\u86c6
aV\u795b
aV\u9ee2
aV\u88aa
aV\u86d0
aV\u5324
aV\u99c6
aV\u657a
aV\u9639
asVben1
p773
(lp774
V\u5954
aV\u951b
aV\u6ccd
aV\u7287
asVshu4
p775
(lp776
V\u6570
aV\u8ff0
aV\u675f
aV\u6811
aV\u7ad6
aV\u6055
aV\u5885
aV\u66d9
aV\u6f8d
aV\u6f31
aV\u5eb6
aV\u620d
aV\u6cad
aV\u9265
aV\u9b9b
asVqu2
p777
(lp778
V\u6e20
aV\u8862
aV\u9e32
aV\u78f2
aV\u9eb9
aV\u4f62
aV\u8c66
aV\u9f29
aV\u80ca
aV\u6c0d
aV\u5337
aV\u8556
aV\u947a
asVshu2
p779
(lp780
V\u719f
aV\u8d4e
aV\u6dd1
aV\u5b70
aV\u587e
aV\u83fd
asVqu4
p781
(lp782
V\u53bb
aV\u8da3
aV\u89d1
aV\u9612
aV\u6e68
aV\u89bb
asVshu1
p783
(lp784
V\u4e66
aV\u8f93
aV\u6b8a
aV\u8212
aV\u7ebe
aV\u852c
aV\u53d4
aV\u758f
aV\u68b3
aV\u67a2
aV\u6292
aV\u500f
aV\u59dd
aV\u6474
aV\u6bf9
asVzun1
p785
(lp786
V\u9075
aV\u5c0a
aV\u6a3d
aV\u5d9f
asVgao4
p787
(lp788
V\u544a
aV\u9506
aV\u8bf0
aV\u543f
aV\u90dc
asVzun3
p789
(lp790
V\u6499
aV\u8b50
asVxiu1
p791
(lp792
V\u4fee
aV\u4f11
aV\u7f9e
aV\u54bb
aV\u9af9
aV\u9990
aV\u5ea5
aV\u9380
aV\u8c85
aV\u93c5
aV\u9e3a
aV\u929d
asVgao1
p793
(lp794
V\u9ad8
aV\u7cd5
aV\u818f
aV\u777e
aV\u7bd9
aV\u7f94
aV\u9ad9
aV\u768b
aV\u81ef
asVzun4
p795
(lp796
V\u9cdf
aV\u6358
asVgao3
p797
(lp798
V\u641e
aV\u7a3f
aV\u69c1
aV\u7f1f
aV\u7b76
aV\u66a0
aV\u6772
asVfeng4
p799
(lp800
V\u5949
aV\u51e4
aV\u4ff8
aV\u9cef
asVan3
p801
(lp802
V\u4ffa
aV\u5535
asVquan4
p803
(lp804
V\u5238
aV\u529d
aV\u70c7
asVpu4
p805
(lp806
V\u66dd
aV\u7011
aV\u8216
asVdun1
p807
(lp808
V\u6566
aV\u5428
aV\u8e72
aV\u58a9
aV\u60c7
aV\u8e7e
asVpu1
p809
(lp810
V\u94fa
aV\u6251
aV\u4ec6
aV\u5657
asVpu2
p811
(lp812
V\u8461
aV\u84b2
aV\u83e9
aV\u749e
aV\u8e7c
aV\u530d
aV\u6fee
aV\u9564
aV\u6bde
asVben4
p813
(lp814
V\u7b28
aV\u6379
aV\u64aa
asVjiu4
p815
(lp816
V\u5c31
aV\u6551
aV\u65e7
aV\u548e
aV\u759a
aV\u8205
aV\u53a9
aV\u81fc
aV\u9e6b
aV\u67e9
aV\u6855
aV\u5ed0
aV\u5336
asVque1
p817
(lp818
V\u7f3a
asVkun1
p819
(lp820
V\u6606
aV\u5764
aV\u951f
aV\u5803
aV\u7428
aV\u9cb2
aV\u711c
aV\u88c8
aV\u9ae1
aV\u918c
aV\u60c3
aV\u7311
asVcai3
p821
(lp822
V\u91c7
aV\u5f69
aV\u8e29
aV\u776c
asVcai2
p823
(lp824
V\u624d
aV\u8d22
aV\u88c1
aV\u6750
aV\u72b2
asVxu2
p825
(lp826
V\u5f90
asVxu3
p827
(lp828
V\u8bb8
aV\u6829
aV\u8be9
aV\u7166
asVyu1
p829
(lp830
V\u6de4
aV\u7600
aV\u8fc2
aV\u7ea1
asVxian4
p831
(lp832
V\u73b0
aV\u9650
aV\u7ebf
aV\u9677
aV\u732e
aV\u5baa
aV\u817a
aV\u53bf
aV\u7fa1
aV\u9985
aV\u86ac
aV\u9730
aV\u82cb
aV\u5c98
aV\u88a8
aV\u930e
aV\u81d4
asVyu3
p833
(lp834
V\u4e0e
aV\u8bed
aV\u5b87
aV\u96e8
aV\u5c7f
aV\u7fbd
aV\u5704
aV\u79b9
aV\u4fe3
aV\u9f89
aV\u504a
aV\u6940
aV\u87a4
aV\u7bfd
aV\u6554
aV\u4f1b
aV\u5ebe
asVyu2
p835
(lp836
V\u4e8e
aV\u4e88
aV\u4f59
aV\u9c7c
aV\u903e
aV\u4e8f
aV\u5a31
aV\u6e14
aV\u6109
aV\u611a
aV\u745c
aV\u8206
aV\u89ce
aV\u9685
aV\u865e
aV\u4fde
aV\u6e1d
aV\u6986
aV\u8753
aV\u8c00
aV\u79ba
aV\u72f3
aV\u8438
aV\u76c2
aV\u63c4
aV\u7afd
aV\u6e61
aV\u8174
aV\u935d
aV\u81fe
aV\u5d4e
aV\u96e9
aV\u6859
aV\u861b
aV\u59a4
aV\u5b29
aV\u7c45
aV\u9d4c
aV\u756d
asVxian1
p837
(lp838
V\u5148
aV\u9c9c
aV\u4ed9
aV\u7ea4
aV\u6380
aV\u63ba
aV\u66b9
aV\u6c19
aV\u7c7c
aV\u97f1
aV\u8df9
aV\u7e8e
aV\u9528
aV\u5b45
aV\u7946
asVlou5
p839
(lp840
V\u55bd
asVxian3
p841
(lp842
V\u663e
aV\u9669
aV\u51bc
aV\u85d3
aV\u7663
aV\u94e3
aV\u8de3
aV\u5c20
aV\u7066
aV\u6507
aV\u6be8
aV\u934c
aV\u5c1f
asVxian2
p843
(lp844
V\u95f2
aV\u5acc
aV\u5f26
aV\u8d24
aV\u8854
aV\u54b8
aV\u5a34
aV\u75eb
aV\u6d8e
aV\u8237
aV\u55db
aV\u9e47
aV\u77b7
aV\u7925
aV\u5afa
aV\u9dfc
asVang4
p845
(lp846
V\u76ce
aV\u678a
asVque2
p847
(lp848
V\u7638
asVang2
p849
(lp850
V\u6602
asV\u87f5
(lp851
V\u87f5
asVmiao4
p852
(lp853
V\u5999
aV\u5e99
asV\u713d
(lp854
V\u713d
asVmiao2
p855
(lp856
V\u63cf
aV\u82d7
aV\u7784
aV\u9e4b
aV\u7de2
asVmiao1
p857
(lp858
V\u55b5
asVzhuang4
p859
(lp860
V\u72b6
aV\u649e
aV\u58ee
asVdou1
p861
(lp862
V\u515c
asVdou3
p863
(lp864
V\u6597
aV\u6296
aV\u9661
aV\u86aa
aV\u6793
aV\u9627
asVdou4
p865
(lp866
V\u8c46
aV\u9017
aV\u75d8
aV\u7aa6
aV\u8373
aV\u9b2a
asVzhuang1
p867
(lp868
V\u88c5
aV\u5e84
aV\u5986
aV\u6869
aV\u7ca7
asVjing1
p869
(lp870
V\u7ecf
aV\u7cbe
aV\u4eac
aV\u775b
aV\u6676
aV\u9cb8
aV\u830e
aV\u8346
aV\u5162
aV\u83c1
aV\u6cfe
aV\u8148
aV\u65cc
aV\u9f31
aV\u7b90
asV\u6f49
(lp871
V\u6f49
asVfen2
p872
(lp873
V\u575f
aV\u711a
aV\u6c7e
aV\u8561
aV\u86a1
aV\u7083
aV\u9ec2
aV\u9f22
aV\u9b75
asVshun4
p874
(lp875
V\u987a
aV\u77ac
aV\u821c
asVzhu4
p876
(lp877
V\u52a9
aV\u6ce8
aV\u4f4f
aV\u8457
aV\u9a7b
aV\u795d
aV\u67f1
aV\u94f8
aV\u86c0
aV\u4f2b
aV\u7fe5
aV\u7ada
aV\u70b7
aV\u677c
aV\u8dd3
aV\u8ef4
aV\u7bb8
asVer4
p878
(lp879
V\u4e8c
aV\u8d30
aV\u8cae
aV\u94d2
aV\u6be6
asVchun1
p880
(lp881
V\u6625
aV\u693f
asVchun3
p882
(lp883
V\u8822
asVchun2
p884
(lp885
V\u7eaf
aV\u9187
aV\u5507
aV\u6df3
aV\u9e51
aV\u83bc
asVrang4
p886
(lp887
V\u8ba9
aV\u6518
asVou3
p888
(lp889
V\u5076
aV\u8026
aV\u85d5
asVluan4
p890
(lp891
V\u4e71
asVou1
p892
(lp893
V\u6b27
aV\u5455
aV\u6bb4
aV\u9e25
aV\u8bb4
aV\u93c2
aV\u74ef
aV\u543d
aV\u6ad9
asVnei3
p894
(lp895
V\u9981
asVnei4
p896
(lp897
V\u5185
asVkan3
p898
(lp899
V\u574e
aV\u780d
aV\u4f83
aV\u6b3f
asVluan3
p900
(lp901
V\u5375
asVkan1
p902
(lp903
V\u520a
aV\u582a
aV\u52d8
aV\u9f9b
aV\u5d41
asVlai4
p904
(lp905
V\u8d56
aV\u7750
aV\u7c41
aV\u765e
aV\u6fd1
aV\u983c
aV\u52d1
aV\u9842
aV\u702c
asVlai2
p906
(lp907
V\u6765
aV\u83b1
aV\u5f95
aV\u94fc
aV\u7b82
aV\u5eb2
aV\u68be
aV\u6d9e
aV\u5d03
aV\u90f2
aV\u9028
aV\u4feb
asVkan4
p908
(lp909
V\u770b
aV\u78e1
aV\u77b0
aV\u5888
asVre3
p910
(lp911
V\u60f9
aV\u558f
asVchao4
p912
(lp913
V\u4ee6
asVlv2
p914
(lp915
V\u6988
aV\u9a74
aV\u7618
aV\u95fe
asVchao2
p916
(lp917
V\u6f6e
aV\u5de2
aV\u5632
aV\u6641
aV\u6a14
asVchao3
p918
(lp919
V\u5435
aV\u7092
asVre4
p920
(lp921
V\u70ed
aV\u6e03
asVchao1
p922
(lp923
V\u8d85
aV\u949e
aV\u6284
aV\u600a
asVwang2
p924
(lp925
V\u738b
aV\u4ea1
aV\u869f
aV\u4efc
asVken3
p926
(lp927
V\u80af
aV\u6073
aV\u5543
aV\u57a6
aV\u9f88
aV\u9339
asVzhao4
p928
(lp929
V\u7167
aV\u53ec
aV\u5146
aV\u7f69
aV\u8d75
aV\u8087
aV\u8bcf
aV\u8088
asVsuo1
p930
(lp931
V\u7f29
aV\u68ad
aV\u55e6
aV\u5506
aV\u6332
aV\u5a11
aV\u7fa7
aV\u84d1
aV\u686b
aV\u8e5c
asVcang1
p932
(lp933
V\u4ed3
aV\u8231
aV\u82cd
aV\u6ca7
aV\u4f27
asVsuo3
p934
(lp935
V\u6240
aV\u7d22
aV\u9501
aV\u7410
aV\u5522
aV\u64cc
aV\u93c1
aV\u669b
aV\u6475
asV\u6bf6
(lp936
V\u6bf6
asVtao4
p937
(lp938
V\u5957
asVcan2
p939
(lp940
V\u6b8b
aV\u8695
aV\u60ed
asVtao1
p941
(lp942
V\u6d9b
aV\u638f
aV\u53e8
aV\u6ed4
aV\u97ec
aV\u9955
aV\u7ee6
aV\u8f41
aV\u5acd
asVtao2
p943
(lp944
V\u9003
aV\u8404
aV\u9676
aV\u6dd8
aV\u6843
aV\u5555
aV\u9789
aV\u932d
aV\u9f17
aV\u7979
asVtao3
p945
(lp946
V\u8ba8
asVzhi4
p947
(lp948
V\u5236
aV\u81f3
aV\u81f4
aV\u6cbb
aV\u7f6e
aV\u5fd7
aV\u667a
aV\u7a1a
aV\u6ede
aV\u79e9
aV\u631a
aV\u7a92
aV\u5e1c
aV\u7099
aV\u5cd9
aV\u684e
aV\u75e3
aV\u75d4
aV\u96c9
aV\u86ed
aV\u9e37
aV\u8e2c
aV\u90c5
aV\u8f7e
aV\u5e19
aV\u5f9d
aV\u7d29
aV\u8d3d
aV\u5ea2
aV\u965f
aV\u8c78
aV\u6303
aV\u748f
aV\u7318
aV\u9a98
aV\u899f
aV\u9527
aV\u889f
aV\u6acd
aV\u8fe3
aV\u5d3b
aV\u7564
aV\u8df1
asVzhi1
p949
(lp950
V\u4e4b
aV\u77e5
aV\u652f
aV\u7ec7
aV\u8102
aV\u829d
aV\u6c41
aV\u679d
aV\u80a2
aV\u8718
aV\u5431
aV\u7957
aV\u80dd
aV\u6800
aV\u79d6
aV\u9e31
aV\u99b6
aV\u67b3
asVxia4
p951
(lp952
V\u4e0b
aV\u590f
aV\u5413
aV\u7f45
aV\u61d7
aV\u8290
aV\u5913
asVzhi3
p953
(lp954
V\u53ea
aV\u6307
aV\u6b62
aV\u5740
aV\u7eb8
aV\u65e8
aV\u8dbe
aV\u916f
aV\u7949
aV\u54ab
aV\u82b7
aV\u627a
aV\u52a7
aV\u62a7
aV\u9ef9
aV\u8967
asVzhi2
p955
(lp956
V\u76f4
aV\u503c
aV\u8d28
aV\u804c
aV\u6267
aV\u690d
aV\u6b96
aV\u63b7
aV\u4f84
aV\u86f0
aV\u8dd6
aV\u8e2f
aV\u8cad
aV\u57f4
aV\u7d77
aV\u5024
aV\u74e1
aV\u8e60
aV\u99bd
asVbao4
p957
(lp958
V\u62a5
aV\u62b1
aV\u66b4
aV\u7206
aV\u9c8d
aV\u8c79
aV\u5228
aV\u94c7
aV\u72a6
asVshua1
p959
(lp960
V\u5237
aV\u5530
asVshua3
p961
(lp962
V\u800d
asVhu4
p963
(lp964
V\u6237
aV\u62a4
aV\u4e92
aV\u6caa
aV\u7b0f
aV\u6248
aV\u795c
aV\u6238
aV\u569b
aV\u6c8d
aV\u5e0d
aV\u8b3c
aV\u5a5f
asVxiu4
p965
(lp966
V\u79c0
aV\u8896
aV\u55c5
aV\u9508
aV\u7ee3
aV\u6eb4
aV\u5cab
aV\u7e4d
asVnian4
p967
(lp968
V\u5ff5
aV\u5eff
aV\u59e9
asVnian3
p969
(lp970
V\u78be
aV\u64b5
aV\u637b
aV\u8f87
asVhu1
p971
(lp972
V\u4e4e
aV\u547c
aV\u5ffd
aV\u60da
aV\u70c0
aV\u5e60
aV\u6612
aV\u6ef9
asVhu2
p973
(lp974
V\u80e1
aV\u6e56
aV\u7cca
aV\u745a
aV\u8774
aV\u72d0
aV\u58f6
aV\u5f27
aV\u846b
aV\u9e55
aV\u9190
aV\u56eb
aV\u659b
aV\u69f2
aV\u7173
aV\u7322
aV\u851b
aV\u9e44
asVhu3
p975
(lp976
V\u864e
aV\u552c
aV\u7425
aV\u6d52
asVhuai4
p977
(lp978
V\u574f
aV\u5b6c
asV\u9c1a
(lp979
V\u9c1a
asVchuang4
p980
(lp981
V\u521b
aV\u6006
aV\u5231
aV\u734a
asVchou4
p982
(lp983
V\u81ed
asVchou2
p984
(lp985
V\u7b79
aV\u916c
aV\u7574
aV\u4ec7
aV\u7ef8
aV\u6101
aV\u7a20
aV\u8e0c
aV\u7118
aV\u60c6
aV\u4fe6
aV\u9167
aV\u96e0
aV\u6906
aV\u85b5
asVchou3
p986
(lp987
V\u4e11
aV\u7785
aV\u677b
asV\u51a7
(lp988
V\u51a7
asVchou1
p989
(lp990
V\u62bd
asV\u7a5d
(lp991
V\u7a5d
asVdan4
p992
(lp993
V\u4f46
aV\u62c5
aV\u5f39
aV\u86cb
aV\u65e6
aV\u6de1
aV\u8bde
aV\u6c2e
aV\u60ee
aV\u5556
aV\u94bd
aV\u6fb9
aV\u758d
aV\u840f
aV\u8711
aV\u81bb
asVdan3
p994
(lp995
V\u80c6
aV\u63b8
aV\u75b8
asVreng1
p996
(lp997
V\u6254
asVdan1
p998
(lp999
V\u5355
aV\u4e39
aV\u803d
aV\u7708
aV\u6b9a
aV\u90f8
aV\u52ef
aV\u8043
aV\u7baa
aV\u8ead
aV\u894c
asV\u6bdc
(lp1000
V\u6bdc
asVzhe2
p1001
(lp1002
V\u6298
aV\u54f2
aV\u8936
aV\u8707
aV\u8f84
aV\u6662
aV\u5586
aV\u8c2a
aV\u74cb
aV\u608a
aV\u8034
asVguo1
p1003
(lp1004
V\u90ed
aV\u9505
aV\u57da
aV\u8748
asVguo3
p1005
(lp1006
V\u679c
aV\u88f9
aV\u6901
aV\u83d3
aV\u6dc9
asVguo2
p1007
(lp1008
V\u56fd
aV\u5e3c
aV\u8158
aV\u63b4
aV\u7c02
aV\u56ef
asVsheng3
p1009
(lp1010
V\u7701
asVsheng2
p1011
(lp1012
V\u7ef3
asVsheng1
p1013
(lp1014
V\u751f
aV\u5347
aV\u58f0
aV\u7272
aV\u7b19
aV\u7525
aV\u73c4
asVkua3
p1015
(lp1016
V\u57ae
asVkua1
p1017
(lp1018
V\u5938
aV\u8342
asVkua4
p1019
(lp1020
V\u8de8
aV\u80ef
asVyin4
p1021
(lp1022
V\u5370
aV\u836b
aV\u80e4
aV\u831a
aV\u7aa8
aV\u6abc
asVtuo1
p1023
(lp1024
V\u6258
aV\u8131
aV\u62d6
aV\u6265
asVtuo2
p1025
(lp1026
V\u9640
aV\u9a7c
aV\u9e35
aV\u5768
aV\u7260
aV\u9a6e
aV\u4f57
aV\u6cb1
aV\u8dce
aV\u9f0d
aV\u7823
aV\u9161
aV\u9b80
asVtuo3
p1027
(lp1028
V\u59a5
aV\u692d
aV\u6955
aV\u5af7
aV\u9d4e
asVtuo4
p1029
(lp1030
V\u62d3
aV\u553e
aV\u67dd
aV\u7ba8
asVruo4
p1031
(lp1032
V\u82e5
aV\u5f31
aV\u504c
aV\u84bb
aV\u712b
aV\u7bac
aV\u5a7c
asVrong3
p1033
(lp1034
V\u5197
asVyin3
p1035
(lp1036
V\u5f15
aV\u996e
aV\u9690
aV\u763e
aV\u5c39
aV\u8693
aV\u96a0
aV\u920f
aV\u78e4
aV\u5ef4
aV\u5dbe
asVming4
p1037
(lp1038
V\u547d
aV\u8a7a
asVlun4
p1039
(lp1040
V\u8bba
asVyao4
p1041
(lp1042
V\u8981
aV\u836f
aV\u8000
aV\u94a5
aV\u9e5e
aV\u66dc
asVgua3
p1043
(lp1044
V\u5be1
aV\u5250
aV\u53e7
asV\u9679
(lp1045
V\u9679
asVming2
p1046
(lp1047
V\u660e
aV\u540d
aV\u9e23
aV\u94ed
aV\u51a5
aV\u9169
aV\u8317
aV\u7791
aV\u879f
aV\u6e9f
aV\u733d
asVran2
p1048
(lp1049
V\u7136
aV\u71c3
aV\u86ba
aV\u9aef
aV\u88a1
aV\u9ae5
aV\u7e4e
asVlian4
p1050
(lp1051
V\u7ec3
aV\u604b
aV\u94fe
aV\u70bc
aV\u655b
aV\u6b93
aV\u6f4b
aV\u695d
aV\u88e3
aV\u932c
aV\u581c
aV\u8539
asVhao1
p1052
(lp1053
V\u84bf
asVhao2
p1054
(lp1055
V\u6beb
aV\u8c6a
aV\u8814
aV\u58d5
aV\u568e
aV\u6fe0
aV\u55e5
aV\u6903
aV\u7346
aV\u8ad5
asVhao3
p1056
(lp1057
V\u597d
aV\u90dd
asVza2
p1058
(lp1059
V\u6742
aV\u7838
aV\u96d1
aV\u96e5
asVza3
p1060
(lp1061
V\u9c9d
asVyao2
p1062
(lp1063
V\u6447
aV\u9065
aV\u8c23
aV\u59da
aV\u6dc6
aV\u80b4
aV\u7a91
aV\u5c27
aV\u7476
aV\u7ab0
aV\u9cd0
aV\u94eb
aV\u669a
aV\u70d1
aV\u98d6
aV\u509c
aV\u5d24
asV\u7ae1
(lp1064
V\u7ae1
asVcuan4
p1065
(lp1066
V\u7a9c
aV\u7be1
aV\u9569
aV\u6ba9
aV\u7228
aV\u71b6
asVsheng4
p1067
(lp1068
V\u76db
aV\u5723
aV\u80dc
aV\u5269
aV\u665f
aV\u5d4a
asVcuan2
p1069
(lp1070
V\u5dd1
aV\u5297
asV\u5b67
(lp1071
V\u5b67
asVcuan1
p1072
(lp1073
V\u8e7f
aV\u64ba
asVhang4
p1074
(lp1075
V\u9150
asVhang1
p1076
(lp1077
V\u592f
asVzou4
p1078
(lp1079
V\u594f
aV\u9aa4
aV\u63cd
asV\u55ef
(lp1080
V\u55ef
asVguo4
p1081
(lp1082
V\u8fc7
asVtang1
p1083
(lp1084
V\u6c64
aV\u7fb0
aV\u9557
aV\u8e5a
asVxi1
p1085
(lp1086
V\u897f
aV\u606f
aV\u5e0c
aV\u5438
aV\u6790
aV\u6089
aV\u7a00
aV\u6670
aV\u60dc
aV\u5915
aV\u727a
aV\u7199
aV\u819d
aV\u6eaa
aV\u6614
aV\u70ef
aV\u91af
aV\u5b09
aV\u516e
aV\u7280
aV\u8725
aV\u66e6
aV\u8e4a
aV\u563b
aV\u87cb
aV\u595a
aV\u7852
aV\u550f
aV\u8785
aV\u71b9
aV\u7699
aV\u7fb2
aV\u6d60
aV\u50d6
aV\u7ab8
aV\u71ba
aV\u665e
aV\u8835
aV\u564f
aV\u71bb
aV\u8c40
aV\u6dc5
aV\u64d5
aV\u740b
aV\u5fda
aV\u9f37
aV\u60c1
aV\u9d57
aV\u5b06
aV\u8980
aV\u89ff
aV\u6278
asVyong4
p1087
(lp1088
V\u7528
aV\u4f63
asVxi3
p1089
(lp1090
V\u559c
aV\u6d17
aV\u5f99
aV\u79a7
aV\u73ba
aV\u5c63
aV\u657c
aV\u973c
aV\u8478
asVyong2
p1091
(lp1092
V\u5581
aV\u9cd9
aV\u69e6
aV\u6efd
aV\u7245
asVyong3
p1093
(lp1094
V\u62e5
aV\u6cf3
aV\u6c38
aV\u6d8c
aV\u52c7
aV\u548f
aV\u8e0a
aV\u4fd1
aV\u607f
aV\u81c3
aV\u86f9
aV\u752c
aV\u509b
aV\u5d71
aV\u57c7
aV\u9cac
asVyi3
p1095
(lp1096
V\u4ee5
aV\u5df2
aV\u6905
aV\u4e59
aV\u8681
aV\u501a
aV\u77e3
aV\u94f1
aV\u65d6
aV\u8fe4
aV\u5ea1
aV\u9487
aV\u6aa5
aV\u6246
aV\u6261
aV\u7b16
aV\u80e3
aV\u926f
aV\u82e2
aV\u9857
asVyi2
p1097
(lp1098
V\u79fb
aV\u7591
aV\u9057
aV\u5b9c
aV\u4eea
aV\u8c0a
aV\u6021
aV\u5937
aV\u59e8
aV\u80f0
aV\u9890
aV\u5f5d
aV\u8d3b
aV\u67b1
aV\u54a6
aV\u75cd
aV\u6c82
aV\u9974
aV\u5bf2
aV\u8bd2
aV\u914f
aV\u7c03
aV\u7724
aV\u984a
aV\u74f5
asVle4
p1099
(lp1100
V\u4e50
aV\u52d2
aV\u53fb
aV\u634b
aV\u7c15
aV\u697d
aV\u961e
asVzhuo1
p1101
(lp1102
V\u684c
aV\u5353
aV\u6349
aV\u502c
asVxi2
p1103
(lp1104
V\u5e2d
aV\u4e60
aV\u88ad
aV\u9521
aV\u7184
aV\u5ab3
aV\u9496
aV\u93b4
aV\u6a84
aV\u89cb
aV\u761c
asVe2
p1105
(lp1106
V\u989d
aV\u4fc4
aV\u54e6
aV\u9e45
aV\u5a25
aV\u8bb9
aV\u86fe
aV\u5ce8
aV\u83aa
aV\u786a
aV\u8b4c
aV\u6d90
aV\u9d5e
asVchui1
p1107
(lp1108
V\u5439
aV\u708a
asV\u698a
(lp1109
V\u698a
asVzong4
p1110
(lp1111
V\u7efc
aV\u7eb5
aV\u7cc9
aV\u7e26
aV\u662e
aV\u7314
asVcuo4
p1112
(lp1113
V\u9519
aV\u63aa
aV\u632b
aV\u9509
aV\u83a1
aV\u5249
aV\u539d
asVzou1
p1114
(lp1115
V\u90b9
aV\u8bf9
aV\u8bcc
aV\u9cb0
aV\u63ab
aV\u9f7a
asVying1
p1116
(lp1117
V\u82f1
aV\u5a74
aV\u9e70
aV\u6a31
aV\u9e66
aV\u83ba
aV\u7f42
aV\u81ba
aV\u745b
aV\u7f28
aV\u5624
aV\u6e36
aV\u748e
asVheng1
p1118
(lp1119
V\u4ea8
aV\u54fc
asVlang1
p1120
(lp1121
V\u5577
asVka1
p1122
(lp1123
V\u5496
aV\u5580
asVheng2
p1124
(lp1125
V\u8861
aV\u6052
aV\u6a2a
aV\u6841
aV\u73e9
aV\u9e3b
aV\u8605
asVheng4
p1126
(lp1127
V\u7ed7
asVnen4
p1128
(lp1129
V\u5ae9
aV\u5af0
asVpai2
p1130
(lp1131
V\u6392
aV\u724c
aV\u5f98
aV\u4ff3
aV\u7305
aV\u8f2b
asVjun1
p1132
(lp1133
V\u519b
aV\u5747
aV\u83cc
aV\u541b
aV\u94a7
aV\u76b2
aV\u8399
aV\u9caa
aV\u6c6e
aV\u687e
asVpai1
p1134
(lp1135
V\u62cd
asV\u781b
(lp1136
V\u781b
asVpai4
p1137
(lp1138
V\u6d3e
aV\u6e43
aV\u54cc
aV\u848e
asVliu2
p1139
(lp1140
V\u6d41
aV\u7559
aV\u6d4f
aV\u5218
aV\u786b
aV\u7624
aV\u69b4
aV\u7409
aV\u905b
aV\u938f
aV\u9a9d
aV\u9c21
aV\u9e60
aV\u98c5
aV\u954f
asVliu3
p1141
(lp1142
V\u67f3
aV\u94c6
aV\u7efa
aV\u950d
aV\u98f9
aV\u687a
asVliu1
p1143
(lp1144
V\u6e9c
aV\u7198
asVqiu1
p1145
(lp1146
V\u79cb
aV\u4e18
aV\u90b1
aV\u86af
aV\u8429
aV\u9cc5
aV\u6978
aV\u7a50
aV\u8824
aV\u8775
aV\u5a9d
asVyan1
p1147
(lp1148
V\u70df
aV\u6df9
aV\u54bd
aV\u814c
aV\u7109
aV\u9609
aV\u5ae3
aV\u80ed
aV\u852b
aV\u5571
aV\u73da
aV\u9122
aV\u5d26
aV\u61d5
asV\u6927
(lp1149
V\u6927
asVqiu2
p1150
(lp1151
V\u7403
aV\u6c42
aV\u56da
aV\u914b
aV\u88d8
aV\u72b0
aV\u9011
aV\u6cc5
aV\u9486
aV\u866c
aV\u5def
aV\u9c3d
aV\u9f3d
aV\u9052
aV\u53f4
aV\u8a04
aV\u716a
aV\u7d0c
aV\u9b82
aV\u6e1e
asVpeng1
p1152
(lp1153
V\u70f9
aV\u62a8
aV\u7830
aV\u562d
aV\u6026
aV\u7851
asVpeng3
p1154
(lp1155
V\u6367
aV\u768f
asVpeng2
p1156
(lp1157
V\u670b
aV\u81a8
aV\u5f6d
aV\u84ec
aV\u7bf7
aV\u68da
aV\u9e4f
aV\u787c
aV\u6f8e
aV\u8283
aV\u97fc
aV\u6337
aV\u580b
aV\u87db
asVpeng4
p1158
(lp1159
V\u78b0
aV\u8e2b
aV\u750f
asVtong3
p1160
(lp1161
V\u7edf
aV\u6876
aV\u7b52
aV\u6345
asVtong2
p1162
(lp1163
V\u540c
aV\u7ae5
aV\u94dc
aV\u916e
aV\u6850
aV\u5f64
aV\u77b3
aV\u4edd
aV\u6f7c
aV\u4f5f
aV\u52ed
aV\u8ff5
aV\u50ee
aV\u7850
aV\u5cd2
aV\u833c
aV\u7ca1
aV\u9c96
aV\u9256
aV\u825f
aV\u70d4
asVtong1
p1164
(lp1165
V\u901a
aV\u606b
aV\u4f97
aV\u6a0b
aV\u55f5
asVtong4
p1166
(lp1167
V\u75db
aV\u6078
asVqiang4
p1168
(lp1169
V\u5534
aV\u709d
asVxi4
p1170
(lp1171
V\u7cfb
aV\u7ec6
aV\u620f
aV\u9699
aV\u6c50
aV\u77fd
aV\u7fd5
aV\u90c4
aV\u798a
aV\u90e4
aV\u7e4b
aV\u5c6d
aV\u960b
aV\u8203
aV\u5fe5
aV\u5c43
aV\u534c
aV\u8204
aV\u7fd6
aV\u6f5f
asV\u933b
(lp1172
V\u933b
asVci4
p1173
(lp1174
V\u6b21
aV\u523a
aV\u673f
aV\u86d3
aV\u4f7d
asVqiang1
p1175
(lp1176
V\u67aa
aV\u8154
aV\u545b
aV\u8dc4
aV\u9535
aV\u7f8c
aV\u6215
aV\u956a
aV\u5d88
aV\u6217
aV\u9397
aV\u7f97
aV\u73b1
aV\u7310
aV\u8723
asVqiang2
p1177
(lp1178
V\u5f3a
aV\u5899
aV\u8537
aV\u5f4a
aV\u6a2f
asVqiang3
p1179
(lp1180
V\u62a2
asVcui3
p1181
(lp1182
V\u7480
asVcui1
p1183
(lp1184
V\u50ac
aV\u6467
aV\u5d14
aV\u93d9
aV\u7af4
asVsui4
p1185
(lp1186
V\u5c81
aV\u788e
aV\u96a7
aV\u9042
aV\u7a57
aV\u795f
aV\u9083
aV\u71e7
aV\u7e40
aV\u9429
aV\u8c07
aV\u6b73
asVcui4
p1187
(lp1188
V\u8106
aV\u7cb9
aV\u7fe0
aV\u8403
aV\u60b4
aV\u7601
aV\u6dec
aV\u5550
aV\u7fc6
aV\u7d23
aV\u7120
aV\u7db7
asVlong3
p1189
(lp1190
V\u5784
aV\u62e2
aV\u9647
asVlong2
p1191
(lp1192
V\u9f99
aV\u9686
aV\u7b3c
aV\u804b
aV\u5499
aV\u80e7
aV\u73d1
aV\u7abf
aV\u830f
aV\u6cf7
aV\u6e70
aV\u882c
aV\u7adc
aV\u7216
aV\u8e98
aV\u783b
aV\u663d
asVyin1
p1193
(lp1194
V\u56e0
aV\u97f3
aV\u59fb
aV\u9634
aV\u6bb7
aV\u8335
aV\u6e6e
aV\u5591
aV\u94df
aV\u6c24
aV\u6b45
aV\u5819
aV\u567e
aV\u7d6a
aV\u8af2
aV\u7616
aV\u97fd
asVan4
p1195
(lp1196
V\u6848
aV\u6309
aV\u6697
aV\u5cb8
aV\u9eef
asVxing4
p1197
(lp1198
V\u6027
aV\u5e78
aV\u59d3
aV\u674f
aV\u60bb
aV\u6dac
asVren3
p1199
(lp1200
V\u5fcd
aV\u7a14
aV\u834f
aV\u68ef
asVren2
p1201
(lp1202
V\u4eba
aV\u4ec1
aV\u58ec
aV\u7eb4
aV\u5fce
aV\u79c2
aV\u6732
aV\u4ebb
asVxing1
p1203
(lp1204
V\u661f
aV\u5174
aV\u7329
aV\u8165
aV\u60fa
aV\u7446
asVcong2
p1205
(lp1206
V\u4ece
aV\u4e1b
aV\u742e
aV\u6dd9
aV\u5a43
aV\u8ce9
asVxing3
p1207
(lp1208
V\u9192
aV\u64e4
aV\u7772
asVxing2
p1209
(lp1210
V\u884c
aV\u578b
aV\u5f62
aV\u5211
aV\u90a2
aV\u4f80
aV\u94cf
aV\u92de
asVsa3
p1211
(lp1212
V\u6d12
asVmin2
p1213
(lp1214
V\u6c11
aV\u73c9
aV\u5cb7
aV\u65fb
aV\u7807
aV\u76ff
aV\u7f17
aV\u65fc
aV\u739f
asVdiu1
p1215
(lp1216
V\u4e22
aV\u94e5
asVsa4
p1217
(lp1218
V\u8428
aV\u5345
aV\u98d2
aV\u8dbf
aV\u6ad2
asVmou1
p1219
(lp1220
V\u54de
asVxiang1
p1221
(lp1222
V\u9999
aV\u76f8
aV\u7bb1
aV\u4e61
aV\u53a2
aV\u9576
aV\u6e58
aV\u8944
aV\u7f03
aV\u6b00
aV\u9aa7
aV\u9e98
aV\u8297
asVna2
p1223
(lp1224
V\u62ff
aV\u55f1
asVqie4
p1225
(lp1226
V\u7a83
aV\u602f
aV\u60ec
aV\u9532
aV\u59be
aV\u6308
aV\u6dc1
aV\u6705
aV\u7ba7
aV\u86ea
aV\u7a55
asVhuo4
p1227
(lp1228
V\u6216
aV\u83b7
aV\u8d27
aV\u970d
aV\u60d1
aV\u7978
aV\u56af
aV\u956c
aV\u85ff
aV\u9e71
aV\u5684
aV\u74c1
aV\u84c3
aV\u6e71
aV\u6509
aV\u7016
aV\u7713
aV\u6947
aV\u549f
aV\u5f5f
asVrou4
p1229
(lp1230
V\u8089
asVrou2
p1231
(lp1232
V\u67d4
aV\u63c9
aV\u8e42
aV\u97a3
aV\u816c
aV\u9352
aV\u9a25
aV\u74c7
aV\u9355
aV\u97d6
aV\u811c
asVhuo1
p1233
(lp1234
V\u8c41
aV\u952a
asVhuo2
p1235
(lp1236
V\u6d3b
aV\u4f78
aV\u94ac
asVhuo3
p1237
(lp1238
V\u706b
aV\u4f19
aV\u90a9
asVli4
p1239
(lp1240
V\u5229
aV\u529b
aV\u7acb
aV\u4f8b
aV\u5386
aV\u52b1
aV\u4e3d
aV\u8389
aV\u5389
aV\u7c92
aV\u96b6
aV\u8354
aV\u8137
aV\u6ca5
aV\u783e
aV\u6817
aV\u86ce
aV\u8385
aV\u4fea
aV\u96f3
aV\u4fd0
aV\u75e2
aV\u623e
aV\u783a
aV\u680e
aV\u540f
aV\u7301
aV\u7b20
aV\u6b74
aV\u67a5
aV\u5533
aV\u66a6
aV\u7c9d
aV\u8318
aV\u75a0
aV\u6ea7
aV\u9b32
aV\u5456
aV\u90e6
aV\u5088
aV\u9e9c
aV\u96b7
aV\u74d1
aV\u68d9
aV\u925d
aV\u575c
aV\u66de
aV\u74e5
aV\u681b
asVzhou2
p1241
(lp1242
V\u8f74
asVzhou1
p1243
(lp1244
V\u6d32
aV\u5468
aV\u5dde
aV\u821f
aV\u7ca5
aV\u5541
aV\u76e9
aV\u8bea
aV\u558c
aV\u5f9f
asVgua4
p1245
(lp1246
V\u6302
aV\u5366
aV\u8902
aV\u576c
asVxie2
p1247
(lp1248
V\u534f
aV\u80c1
aV\u978b
aV\u643a
aV\u659c
aV\u8c10
aV\u90aa
aV\u631f
aV\u5055
aV\u64b7
aV\u7f2c
aV\u8762
aV\u604a
aV\u8107
aV\u896d
asVli1
p1249
(lp1250
V\u54e9
asVli2
p1251
(lp1252
V\u79bb
aV\u9ece
aV\u5398
aV\u7483
aV\u68a8
aV\u72f8
aV\u7bf1
aV\u7f79
aV\u6f13
aV\u55b1
aV\u7281
aV\u85dc
aV\u870a
aV\u84e0
aV\u9e42
aV\u9ca1
aV\u9a8a
aV\u569f
aV\u9a39
aV\u9ee7
aV\u7c8d
aV\u908c
aV\u775d
asVchan4
p1253
(lp1254
V\u5fcf
aV\u7fbc
asVmi1
p1255
(lp1256
V\u54aa
asV\u6ff8
(lp1257
V\u6ff8
asVmi3
p1258
(lp1259
V\u7c73
aV\u9761
aV\u772f
aV\u5f2d
aV\u6d23
aV\u92a4
asVmi2
p1260
(lp1261
V\u8ff7
aV\u5f25
aV\u8c1c
aV\u7315
aV\u9e8b
aV\u7cdc
aV\u919a
aV\u7962
aV\u863c
asVmi4
p1262
(lp1263
V\u5bc6
aV\u79d8
aV\u871c
aV\u6ccc
aV\u89c5
aV\u8c27
aV\u5e42
aV\u5627
aV\u7cf8
aV\u6c68
aV\u5b93
aV\u5cda
aV\u8820
aV\u6dff
asVjiao2
p1264
(lp1265
V\u56bc
asVjiao3
p1266
(lp1267
V\u89d2
aV\u7f34
aV\u811a
aV\u6405
aV\u7ede
aV\u77eb
aV\u72e1
aV\u4f7c
aV\u997a
aV\u4fa5
aV\u527f
aV\u94f0
aV\u768e
aV\u9c9b
aV\u6e6b
aV\u64b9
aV\u6322
asVge3
p1268
(lp1269
V\u8238
asVgeng3
p1270
(lp1271
V\u803f
aV\u6897
aV\u54fd
aV\u7ee0
aV\u57c2
aV\u9ca0
aV\u632d
asVge1
p1272
(lp1273
V\u6b4c
aV\u54e5
aV\u6208
aV\u5272
aV\u6401
aV\u54af
aV\u80f3
aV\u9e3d
aV\u7599
aV\u72b5
aV\u93b6
aV\u726b
aV\u8b0c
aV\u7271
asV\u7faa
(lp1274
V\u7faa
asVran3
p1275
(lp1276
V\u67d3
aV\u5189
aV\u82d2
aV\u5aa3
asVgeng4
p1277
(lp1278
V\u66f4
asVge4
p1279
(lp1280
V\u4e2a
aV\u5404
aV\u94ec
aV\u867c
asVchan1
p1281
(lp1282
V\u6400
aV\u88e7
aV\u9246
asVming3
p1283
(lp1284
V\u51d5
asVya2
p1285
(lp1286
V\u7259
aV\u6daf
aV\u82bd
aV\u5d16
aV\u8859
aV\u869c
aV\u6860
aV\u4f22
aV\u7b0c
asVjiang3
p1287
(lp1288
V\u8bb2
aV\u5956
aV\u848b
aV\u6868
aV\u8941
asVtuan1
p1289
(lp1290
V\u6e4d
asVtuan2
p1291
(lp1292
V\u56e2
aV\u93c4
aV\u629f
asVzen3
p1293
(lp1294
V\u600e
asVpang1
p1295
(lp1296
V\u4e53
aV\u6ec2
asVmei3
p1297
(lp1298
V\u7f8e
aV\u6bcf
aV\u9541
aV\u6d7c
aV\u6bce
aV\u51c2
aV\u5a84
asVmei2
p1299
(lp1300
V\u6ca1
aV\u5a92
aV\u6885
aV\u7164
aV\u679a
aV\u9709
aV\u8393
aV\u7709
aV\u73ab
aV\u9176
aV\u6e44
aV\u6963
aV\u5d4b
aV\u8122
aV\u6802
aV\u6517
aV\u7996
aV\u7bc3
aV\u9545
aV\u69d1
aV\u9e5b
aV\u6973
asVmei4
p1301
(lp1302
V\u59b9
aV\u9b45
aV\u6627
aV\u5a9a
aV\u5bd0
aV\u8882
aV\u6cac
aV\u62ba
asVbian1
p1303
(lp1304
V\u8fb9
aV\u7f16
aV\u8759
aV\u97ad
aV\u7178
aV\u782d
aV\u9cca
aV\u7a28
asVwai1
p1305
(lp1306
V\u6b6a
asVba4
p1307
(lp1308
V\u7238
aV\u7f62
aV\u9738
aV\u575d
aV\u8019
aV\u705e
asVba5
p1309
(lp1310
V\u5427
asVba2
p1311
(lp1312
V\u62d4
aV\u8dcb
aV\u94b9
aV\u83dd
aV\u9b43
asVrun4
p1313
(lp1314
V\u6da6
aV\u95f0
aV\u81b6
asVba1
p1315
(lp1316
V\u5df4
aV\u516b
aV\u82ad
aV\u75a4
aV\u53ed
aV\u6252
aV\u7b06
aV\u7c91
aV\u54f5
aV\u634c
aV\u9c83
aV\u7390
asVhao4
p1317
(lp1318
V\u53f7
aV\u8017
aV\u6d69
aV\u7693
aV\u704f
aV\u660a
aV\u9550
aV\u98a2
aV\u66ad
asVtou2
p1319
(lp1320
V\u6295
aV\u5934
aV\u9ab0
asVmo3
p1321
(lp1322
V\u62b9
aV\u61e1
asVweng1
p1323
(lp1324
V\u7fc1
aV\u55e1
aV\u9e5f
asVdu4
p1325
(lp1326
V\u5ea6
aV\u675c
aV\u6e21
aV\u809a
aV\u5992
aV\u9540
aV\u8839
aV\u976f
asV\u933a
(lp1327
V\u933a
asVdun4
p1328
(lp1329
V\u987f
aV\u76fe
aV\u56e4
aV\u949d
aV\u6c8c
aV\u9041
aV\u8e32
aV\u4f05
aV\u5e89
asVyou4
p1330
(lp1331
V\u53c8
aV\u53f3
aV\u5e7c
aV\u8bf1
aV\u4f51
aV\u67da
aV\u91c9
aV\u9f2c
aV\u56ff
aV\u5ba5
aV\u7950
asVchuan3
p1332
(lp1333
V\u5598
aV\u821b
asVchuan2
p1334
(lp1335
V\u4f20
aV\u8239
aV\u693d
aV\u9044
aV\u66b7
asVbai2
p1336
(lp1337
V\u767d
asVbai3
p1338
(lp1339
V\u767e
aV\u6446
aV\u67cf
aV\u4f70
aV\u636d
asVqing4
p1340
(lp1341
V\u5e86
aV\u7f44
aV\u78ec
aV\u7883
aV\u51ca
aV\u8b26
aV\u78d8
asVweng4
p1342
(lp1343
V\u74ee
asVchuan4
p1344
(lp1345
V\u4e32
aV\u948f
asVjia4
p1346
(lp1347
V\u4ef7
aV\u67b6
aV\u9a7e
aV\u5ac1
aV\u7a3c
aV\u69a2
asVhua4
p1348
(lp1349
V\u5316
aV\u8bdd
aV\u753b
aV\u6866
aV\u8ae3
asVlve4
p1350
(lp1351
V\u7565
aV\u63a0
aV\u7567
asVnie1
p1352
(lp1353
V\u634f
aV\u63d1
asVlian2
p1354
(lp1355
V\u8054
aV\u8fde
aV\u5ec9
aV\u601c
aV\u83b2
aV\u5e18
aV\u6d9f
aV\u6fc2
aV\u9570
aV\u740f
aV\u88e2
aV\u68bf
aV\u5941
aV\u9ca2
aV\u50c6
aV\u7ff4
aV\u5333
asVnie4
p1356
(lp1357
V\u6d85
aV\u954d
aV\u8042
aV\u5b7d
aV\u556e
aV\u989e
aV\u8e51
aV\u954a
aV\u81ec
aV\u56d3
aV\u655c
aV\u5e07
aV\u55eb
aV\u6e7c
aV\u9667
aV\u7cf1
aV\u69f8
aV\u68ff
asV\u8254
(lp1358
V\u8254
asVbao1
p1359
(lp1360
V\u5305
aV\u80de
aV\u7172
aV\u5b62
aV\u8912
aV\u82de
asV\u9d64
(lp1361
V\u9d64
asVpian4
p1362
(lp1363
V\u7247
aV\u9a97
asV\u7363
(lp1364
V\u7363
asVpian1
p1365
(lp1366
V\u7bc7
aV\u504f
aV\u7fe9
aV\u56e8
aV\u5aa5
aV\u728f
asVhe2
p1367
(lp1368
V\u548c
aV\u5408
aV\u4f55
aV\u6838
aV\u6cb3
aV\u8377
aV\u76d2
aV\u79be
aV\u8910
aV\u874e
aV\u9602
aV\u6db8
aV\u52be
aV\u9fa2
aV\u8c89
aV\u6941
aV\u83cf
aV\u8402
aV\u7ea5
aV\u86b5
aV\u67c7
aV\u76c9
aV\u7fee
asVpian3
p1369
(lp1370
V\u8991
asVpian2
p1371
(lp1372
V\u80fc
aV\u9a88
aV\u8e41
aV\u8cc6
asVmen4
p1373
(lp1374
V\u95f7
aV\u61d1
aV\u7116
asVmen5
p1375
(lp1376
V\u4eec
asVhua1
p1377
(lp1378
V\u82b1
aV\u54d7
aV\u9335
asVdian1
p1379
(lp1380
V\u98a0
aV\u766b
aV\u5dc5
aV\u6ec7
aV\u6382
asVmen2
p1381
(lp1382
V\u95e8
aV\u626a
aV\u9494
asVmen3
p1383
(lp1384
V\u66aa
asVrui4
p1385
(lp1386
V\u745e
aV\u9510
aV\u777f
aV\u82ae
aV\u53e1
aV\u868b
asVfen4
p1387
(lp1388
V\u4efd
aV\u594b
aV\u6124
aV\u7caa
aV\u5fff
aV\u9cbc
aV\u7035
aV\u507e
asVce4
p1389
(lp1390
V\u7b56
aV\u6d4b
aV\u518c
aV\u4fa7
aV\u5395
aV\u607b
aV\u61a1
asVfen1
p1391
(lp1392
V\u5206
aV\u7eb7
aV\u82ac
aV\u6c1b
aV\u915a
aV\u5429
aV\u780f
aV\u5c8e
aV\u71d3
aV\u6610
asVque4
p1393
(lp1394
V\u786e
aV\u5374
aV\u96c0
aV\u9e4a
aV\u69b7
aV\u60ab
aV\u9619
aV\u9615
aV\u76b5
aV\u822d
aV\u792d
aV\u785e
asVfen3
p1395
(lp1396
V\u7c89
asVrui3
p1397
(lp1398
V\u854a
asVbai1
p1399
(lp1400
V\u63b0
asVyuan2
p1401
(lp1402
V\u5458
aV\u5143
aV\u539f
aV\u6e90
aV\u56ed
aV\u63f4
aV\u7f18
aV\u5706
aV\u733f
aV\u8881
aV\u8788
aV\u57a3
aV\u8f95
aV\u82ab
aV\u6c85
aV\u571c
aV\u732d
aV\u6a7c
aV\u9f0b
aV\u8d20
aV\u6e72
aV\u59a7
aV\u93b1
aV\u7230
aV\u586c
asVbei1
p1403
(lp1404
V\u676f
aV\u60b2
aV\u7891
aV\u5351
aV\u9e4e
aV\u9642
aV\u7986
asVhuan1
p1405
(lp1406
V\u6b22
aV\u737e
aV\u9a69
aV\u9d05
asVduan4
p1407
(lp1408
V\u6bb5
aV\u65ad
aV\u953b
aV\u7f0e
aV\u6934
aV\u7145
aV\u7c16
asVchuang3
p1409
(lp1410
V\u95ef
asVchuang2
p1411
(lp1412
V\u5e8a
aV\u5e62
aV\u7592
aV\u6a66
asVduan1
p1413
(lp1414
V\u7aef
asVhuan4
p1415
(lp1416
V\u6362
aV\u60a3
aV\u5e7b
aV\u5524
aV\u75ea
aV\u7115
aV\u5942
aV\u6da3
aV\u5ba6
aV\u8c62
aV\u64d0
aV\u902d
aV\u57b8
asVduan3
p1417
(lp1418
V\u77ed
asVtu1
p1419
(lp1420
V\u7a81
aV\u51f8
aV\u79c3
asVtu2
p1421
(lp1422
V\u56fe
aV\u9014
aV\u5f92
aV\u6d82
aV\u5c60
aV\u837c
aV\u934e
aV\u7b61
aV\u51c3
aV\u6f73
aV\u56f3
asVtu3
p1423
(lp1424
V\u571f
aV\u5410
aV\u948d
aV\u828f
asVtu4
p1425
(lp1426
V\u5154
aV\u514e
asVseng1
p1427
(lp1428
V\u50e7
asV\u7c90
(lp1429
V\u7c90
asVchuai4
p1430
(lp1431
V\u8e39
asVqin1
p1432
(lp1433
V\u4eb2
aV\u4fb5
aV\u94a6
aV\u5d5a
aV\u7d85
aV\u7019
aV\u887e
asV\u8041
(lp1434
V\u8041
asVzou3
p1435
(lp1436
V\u8d70
asV\u9596
(lp1437
V\u9596
asVhang2
p1438
(lp1439
V\u822a
aV\u80ae
aV\u676d
aV\u542d
aV\u6c86
aV\u86a2
asVke3
p1440
(lp1441
V\u53ef
aV\u6e34
aV\u5777
aV\u6564
asVke2
p1442
(lp1443
V\u58f3
aV\u54b3
asVke1
p1444
(lp1445
V\u79d1
aV\u9897
aV\u67ef
aV\u68f5
aV\u82db
aV\u78d5
aV\u778c
aV\u874c
aV\u73c2
aV\u7aa0
aV\u75b4
aV\u9ac1
aV\u5cc7
aV\u8f72
aV\u7c3b
aV\u7a1e
asVman2
p1446
(lp1447
V\u7792
aV\u86ee
aV\u8e52
aV\u9cd7
aV\u9992
aV\u8c29
aV\u6097
asVman3
p1448
(lp1449
V\u6ee1
aV\u87a8
aV\u93cb
asVman4
p1450
(lp1451
V\u66fc
aV\u6162
aV\u6f2b
aV\u8513
aV\u5e54
aV\u7f26
aV\u9b17
asVyi4
p1452
(lp1453
V\u610f
aV\u8bae
aV\u6613
aV\u4ebf
aV\u4e49
aV\u76ca
aV\u533b
aV\u827a
aV\u4ea6
aV\u5f02
aV\u8bd1
aV\u5fc6
aV\u6291
aV\u7ffc
aV\u75ab
aV\u6ea2
aV\u88d4
aV\u5f79
aV\u7ece
aV\u9038
aV\u6bc5
aV\u7fcc
aV\u5955
aV\u5f08
aV\u71a0
aV\u8734
aV\u5c79
aV\u8f76
aV\u81c6
aV\u8be3
aV\u814b
aV\u61ff
aV\u9091
aV\u5f0b
aV\u4f5a
aV\u9a7f
aV\u57f8
aV\u7654
aV\u7fca
aV\u5208
aV\u9552
aV\u8084
aV\u7f22
aV\u5453
aV\u7ff3
aV\u5e46
aV\u7fbf
aV\u858f
aV\u9571
aV\u6bb9
aV\u55cc
aV\u58bf
aV\u678d
aV\u9861
aV\u99c5
aV\u8b9b
aV\u97a5
aV\u85d9
aV\u6b94
aV\u7088
aV\u972c
aV\u5ed9
aV\u5293
aV\u6339
aV\u66c0
aV\u5cc4
aV\u517f
aV\u6e59
aV\u9be3
aV\u4ee1
aV\u68ed
aV\u546d
aV\u75ec
asVting1
p1454
(lp1455
V\u542c
aV\u5385
aV\u6c40
aV\u5ef0
aV\u8074
aV\u539b
aV\u8013
aV\u807c
asVweng3
p1456
(lp1457
V\u6ec3
asVting3
p1458
(lp1459
V\u633a
aV\u8247
aV\u753a
aV\u94e4
aV\u6883
asVting2
p1460
(lp1461
V\u505c
aV\u5ead
aV\u5ef7
aV\u4ead
aV\u9706
aV\u5a77
aV\u8713
aV\u95ae
aV\u8aea
aV\u9f2e
asVtang3
p1462
(lp1463
V\u8eba
aV\u5018
aV\u6dcc
aV\u5e11
aV\u50a5
aV\u9482
aV\u7223
asVqiao3
p1464
(lp1465
V\u5de7
aV\u6084
asVtou1
p1466
(lp1467
V\u5077
aV\u5078
asVqiao1
p1468
(lp1469
V\u6572
aV\u6a47
aV\u8df7
aV\u9539
aV\u981d
aV\u9adc
asVtou3
p1470
(lp1471
V\u7d0f
aV\u9ec8
asVtou4
p1472
(lp1473
V\u900f
asV\u4e37
(lp1474
V\u4e37
asVqiao4
p1475
(lp1476
V\u7a8d
aV\u5ced
aV\u4fcf
aV\u64ac
aV\u9798
aV\u9ada
aV\u8bee
asVjiang1
p1477
(lp1478
V\u5c06
aV\u6c5f
aV\u50f5
aV\u6d46
aV\u7586
aV\u59dc
aV\u7f30
aV\u8c47
aV\u9cc9
aV\u6a7f
asVyi1
p1479
(lp1480
V\u4e00
aV\u4f0a
aV\u4f9d
aV\u8863
aV\u58f9
aV\u6f2a
aV\u54bf
aV\u566b
aV\u63d6
aV\u7e44
aV\u8b69
aV\u794e
asV\u93ba
(lp1481
V\u93ba
asVnu4
p1482
(lp1483
V\u6012
asV\u823f
(lp1484
V\u823f
asVtang4
p1485
(lp1486
V\u8d9f
aV\u70eb
asVgou4
p1487
(lp1488
V\u8d2d
aV\u591f
aV\u57a2
aV\u8bdf
aV\u5abe
aV\u6480
aV\u59e4
aV\u89cf
aV\u7179
aV\u9aba
aV\u8a3d
asVse4
p1489
(lp1490
V\u8272
aV\u745f
aV\u6da9
aV\u556c
aV\u94ef
aV\u8d87
aV\u6fc7
aV\u6b70
asVgou1
p1491
(lp1492
V\u6784
aV\u6c9f
aV\u94a9
aV\u52fe
aV\u7bdd
asVjin3
p1493
(lp1494
V\u5c3d
aV\u4ec5
aV\u7d27
aV\u8c28
aV\u9526
aV\u69ff
aV\u89d0
aV\u5807
aV\u747e
aV\u9991
aV\u4fad
asVgou3
p1495
(lp1496
V\u72d7
aV\u82df
aV\u8329
asVgeng1
p1497
(lp1498
V\u8015
aV\u7fb9
aV\u5e9a
aV\u8d53
aV\u7dea
asVyong1
p1499
(lp1500
V\u5eb8
aV\u96cd
aV\u6175
aV\u5889
aV\u955b
aV\u58c5
aV\u75c8
aV\u5670
asVnu2
p1501
(lp1502
V\u5974
aV\u9a7d
asVnu3
p1503
(lp1504
V\u52aa
aV\u5f29
aV\u80ec
asV\u8864
(lp1505
V\u8864
asVkang2
p1506
(lp1507
V\u625b
asVkang1
p1508
(lp1509
V\u5eb7
aV\u6177
aV\u7ce0
aV\u5ffc
asVkang4
p1510
(lp1511
V\u6297
aV\u4ea2
aV\u4f09
aV\u7095
aV\u94aa
aV\u95f6
aV\u72ba
asVzhuo2
p1512
(lp1513
V\u914c
aV\u62d9
aV\u707c
aV\u7422
aV\u7ecc
aV\u6d4a
aV\u956f
aV\u8301
aV\u712f
aV\u5544
aV\u6fef
aV\u64e2
aV\u68c1
aV\u65ab
aV\u5545
aV\u666b
aV\u53d5
aV\u5734
aV\u9323
aV\u65b1
asVzu1
p1514
(lp1515
V\u79df
aV\u84a9
asVsui1
p1516
(lp1517
V\u867d
aV\u7ee5
aV\u837d
aV\u590a
aV\u6fc9
aV\u71a3
aV\u7762
aV\u772d
aV\u8295
aV\u6bf8
aV\u837e
asVzheng4
p1518
(lp1519
V\u653f
aV\u6b63
aV\u8bc1
aV\u75c7
aV\u90d1
aV\u5e27
aV\u8a3c
aV\u9503
asVlu1
p1520
(lp1521
V\u565c
asVlu2
p1522
(lp1523
V\u5362
aV\u7089
aV\u82a6
aV\u9885
aV\u5e90
aV\u80ea
aV\u9c88
aV\u9e2c
aV\u6cf8
aV\u680c
aV\u8f73
aV\u5786
aV\u946a
asVlu3
p1524
(lp1525
V\u9c81
aV\u5364
aV\u864f
aV\u63b3
aV\u64b8
aV\u6a79
aV\u93c0
aV\u9565
asVlu4
p1526
(lp1527
V\u8def
aV\u5f55
aV\u9732
aV\u9646
aV\u9e7f
aV\u8d42
aV\u788c
aV\u622e
aV\u7984
aV\u9e6d
aV\u8f98
aV\u7490
aV\u6f09
aV\u9e93
aV\u9a04
aV\u6f5e
aV\u6902
aV\u8f82
aV\u752a
aV\u7c2c
aV\u6e0c
aV\u9d66
aV\u4f93
aV\u9d71
asVzheng1
p1528
(lp1529
V\u4e89
aV\u5f81
aV\u6323
aV\u84b8
aV\u7741
aV\u7b5d
aV\u94ee
aV\u72f0
aV\u6014
aV\u5ce5
aV\u8be4
aV\u5fb4
aV\u8e2d
aV\u94b2
asVmu3
p1530
(lp1531
V\u6bcd
aV\u59c6
aV\u4ea9
aV\u7261
aV\u62c7
aV\u59e5
aV\u782a
asVmu2
p1532
(lp1533
V\u6c01
asVwo4
p1534
(lp1535
V\u6c83
aV\u63e1
aV\u5367
aV\u65a1
aV\u9f8c
aV\u6e25
aV\u5e44
aV\u64ed
aV\u6db4
asVxiao4
p1536
(lp1537
V\u6548
aV\u6821
aV\u7b11
aV\u8096
aV\u5578
aV\u5b5d
aV\u509a
aV\u85e0
aV\u8a9f
aV\u52b9
asVkuai4
p1538
(lp1539
V\u5feb
aV\u5757
aV\u7b77
aV\u810d
aV\u4fa9
aV\u54d9
aV\u6867
aV\u90d0
aV\u9c99
asVcheng3
p1540
(lp1541
V\u901e
aV\u9a8b
asVbie1
p1542
(lp1543
V\u618b
aV\u9cd6
aV\u864c
asVbie2
p1544
(lp1545
V\u522b
aV\u8e69
asVxiao1
p1546
(lp1547
V\u6d88
aV\u9500
aV\u8427
aV\u5bb5
aV\u785d
aV\u54ee
aV\u56a3
aV\u900d
aV\u6f47
aV\u7bab
aV\u67ad
aV\u9704
aV\u9a81
aV\u9b48
aV\u9e2e
aV\u5ea8
aV\u6f5a
aV\u8653
aV\u554b
asVfan1
p1548
(lp1549
V\u7ffb
aV\u756a
aV\u5e06
aV\u5e61
aV\u8f53
aV\u65d9
asV\u9cf0
(lp1550
V\u9cf0
asVfan3
p1551
(lp1552
V\u53cd
aV\u8fd4
aV\u74ea
asVsai4
p1553
(lp1554
V\u8d5b
aV\u7c3a
asVfan4
p1555
(lp1556
V\u8303
aV\u72af
aV\u6cdb
aV\u996d
aV\u8d29
aV\u68b5
asVsai1
p1557
(lp1558
V\u585e
aV\u816e
aV\u9cc3
aV\u6be2
asVmie1
p1559
(lp1560
V\u54a9
aV\u4e5c
aV\u5400
asVmian2
p1561
(lp1562
V\u7720
aV\u68c9
aV\u7ef5
aV\u5b80
aV\u918e
aV\u7ddc
asVmian3
p1563
(lp1564
V\u514d
aV\u7f05
aV\u52c9
aV\u5a29
aV\u5195
aV\u817c
aV\u6e4e
aV\u5595
asVmian4
p1565
(lp1566
V\u9762
asVreng2
p1567
(lp1568
V\u4ecd
asVbeng3
p1569
(lp1570
V\u57f2
asVluo1
p1571
(lp1572
V\u7f57
aV\u5570
asVdian4
p1573
(lp1574
V\u7535
aV\u5e97
aV\u7538
aV\u6bbf
aV\u57ab
aV\u5960
aV\u6dc0
aV\u73b7
aV\u60e6
aV\u4f43
aV\u94bf
aV\u975b
aV\u7c1f
aV\u765c
asVluo3
p1575
(lp1576
V\u88f8
aV\u7630
aV\u651e
aV\u7822
aV\u7673
aV\u81dd
asVluo4
p1577
(lp1578
V\u7edc
aV\u843d
aV\u6d1b
aV\u9a86
aV\u70d9
aV\u645e
aV\u73de
aV\u784c
aV\u8366
aV\u7e99
aV\u96d2
aV\u55e0
asVqing1
p1579
(lp1580
V\u6e05
aV\u8f7b
aV\u9752
aV\u503e
aV\u6c22
aV\u6c30
aV\u537f
aV\u873b
aV\u9cad
aV\u6df8
aV\u9751
aV\u72c5
aV\u570a
asVbeng4
p1581
(lp1582
V\u6cf5
aV\u8e66
aV\u8ff8
aV\u955a
asVbei3
p1583
(lp1584
V\u5317
asVga4
p1585
(lp1586
V\u5c2c
asVga3
p1587
(lp1588
V\u5c15
asVga1
p1589
(lp1590
V\u560e
aV\u5620
asVzan3
p1591
(lp1592
V\u6512
aV\u5139
aV\u661d
aV\u5127
aV\u5646
asVchuo2
p1593
(lp1594
V\u72b3
asVchu4
p1595
(lp1596
V\u5904
aV\u755c
aV\u77d7
aV\u6410
aV\u9edc
aV\u6035
aV\u4ff6
aV\u6ec0
aV\u65a3
asVchuo1
p1597
(lp1598
V\u6233
asVchu2
p1599
(lp1600
V\u9664
aV\u53a8
aV\u6a71
aV\u96cf
aV\u8e87
aV\u870d
aV\u9504
aV\u520d
aV\u8e70
aV\u6ec1
asVchu3
p1601
(lp1602
V\u50a8
aV\u7840
aV\u695a
aV\u6775
aV\u61b7
aV\u891a
aV\u696e
asVnang2
p1603
(lp1604
V\u56ca
aV\u4e6a
aV\u6b1c
asVchu1
p1605
(lp1606
V\u51fa
aV\u521d
aV\u5c80
aV\u6a17
asVcun2
p1607
(lp1608
V\u5b58
asVdiao3
p1609
(lp1610
V\u5c4c
aV\u948c
asVkao3
p1611
(lp1612
V\u8003
aV\u70e4
aV\u62f7
asVdiao1
p1613
(lp1614
V\u96d5
aV\u8c82
aV\u7889
aV\u5201
aV\u51cb
aV\u53fc
aV\u9cb7
aV\u6ba6
asVnong4
p1615
(lp1616
V\u5f04
asVdiao4
p1617
(lp1618
V\u8c03
aV\u6389
aV\u540a
aV\u9493
aV\u85cb
aV\u7639
asVling1
p1619
(lp1620
V\u62ce
asVhou3
p1621
(lp1622
V\u543c
asV\u79a3
(lp1623
V\u79a3
asVling2
p1624
(lp1625
V\u96f6
aV\u7075
aV\u9f84
aV\u51cc
aV\u5cad
aV\u8046
aV\u94c3
aV\u73b2
aV\u83f1
aV\u9675
aV\u4f36
aV\u7f9a
aV\u56f9
aV\u5464
aV\u7fce
aV\u82d3
aV\u7eeb
aV\u74f4
aV\u9cae
aV\u68c2
aV\u590c
aV\u86c9
aV\u9f62
aV\u970a
aV\u740c
aV\u67c3
aV\u6ce0
aV\u9e77
asVqing2
p1626
(lp1627
V\u60c5
aV\u64ce
aV\u6674
aV\u6b91
aV\u52cd
aV\u6aa0
asVling4
p1628
(lp1629
V\u4ee4
aV\u53e6
aV\u6395
asV\u6e0b
(lp1630
V\u6e0b
asVfu1
p1631
(lp1632
V\u592b
aV\u80a4
aV\u6577
aV\u5b75
aV\u544b
aV\u9eb8
aV\u8dd7
aV\u8dba
aV\u59c7
aV\u7806
aV\u67b9
aV\u739e
asVzhuo4
p1633
(lp1634
V\u5285
asV\u6928
(lp1635
V\u6928
asVzeng1
p1636
(lp1637
V\u589e
aV\u618e
aV\u7f2f
aV\u5897
aV\u7f7e
aV\u71b7
asVai1
p1638
(lp1639
V\u57c3
aV\u54c0
aV\u54ce
aV\u6328
aV\u5509
aV\u8bf6
asVsuan4
p1640
(lp1641
V\u7b97
aV\u849c
aV\u7958
asVai3
p1642
(lp1643
V\u77ee
aV\u853c
aV\u972d
aV\u6b38
asVzeng4
p1644
(lp1645
V\u8d60
aV\u7511
asVtai2
p1646
(lp1647
V\u53f0
aV\u62ac
aV\u82d4
aV\u8dc6
aV\u90b0
aV\u85b9
aV\u9c90
aV\u576e
aV\u5113
aV\u70b2
asVnang1
p1648
(lp1649
V\u56d4
asV\u5d75
(lp1650
V\u5d75
asV\u83bb
(lp1651
V\u83bb
asV\u8068
(lp1652
V\u8068
asVtan4
p1653
(lp1654
V\u63a2
aV\u78b3
aV\u70ad
aV\u53f9
aV\u6e60
asVtan3
p1655
(lp1656
V\u5766
aV\u6bef
aV\u8892
aV\u5fd0
aV\u61b3
aV\u8962
aV\u9eee
aV\u55ff
asVtan2
p1657
(lp1658
V\u8c08
aV\u575b
aV\u6f6d
aV\u8c2d
aV\u6a80
aV\u6619
aV\u75f0
aV\u8983
asVtan1
p1659
(lp1660
V\u6ee9
aV\u644a
aV\u8d2a
aV\u762b
aV\u574d
aV\u8b60
aV\u64f9
asVzang1
p1661
(lp1662
V\u810f
aV\u8d43
aV\u81dc
aV\u81e7
aV\u8535
aV\u5328
aV\u8ccd
aV\u7f98
asVdian3
p1663
(lp1664
V\u70b9
aV\u5178
aV\u7898
aV\u8e2e
asVqing3
p1665
(lp1666
V\u8bf7
aV\u9877
asVdie1
p1667
(lp1668
V\u8dcc
aV\u7239
asV\u5ce0
(lp1669
V\u5ce0
asVtian1
p1670
(lp1671
V\u5929
aV\u6dfb
aV\u5172
aV\u5a56
asVpo4
p1672
(lp1673
V\u7834
aV\u8feb
aV\u73c0
aV\u6734
aV\u9b44
aV\u7c95
aV\u948b
asVsuan1
p1674
(lp1675
V\u9178
aV\u72fb
asVpo2
p1676
(lp1677
V\u5a46
aV\u9131
aV\u6ac7
asVpo3
p1678
(lp1679
V\u9887
aV\u53f5
aV\u7b38
asVgui1
p1680
(lp1681
V\u89c4
aV\u5f52
aV\u7845
aV\u7470
aV\u9f9f
aV\u572d
aV\u95fa
aV\u9c91
aV\u5080
aV\u7688
aV\u88bf
aV\u69fb
aV\u59ab
asVpo1
p1682
(lp1683
V\u5761
aV\u6cfc
aV\u94b7
asVshuang1
p1684
(lp1685
V\u53cc
aV\u971c
aV\u5b40
asVpiao3
p1686
(lp1687
V\u779f
aV\u7f25
aV\u8198
asVshuang3
p1688
(lp1689
V\u723d
asVniao3
p1690
(lp1691
V\u9e1f
aV\u8885
aV\u5b32
asVqiong2
p1692
(lp1693
V\u7a77
aV\u743c
aV\u7a79
aV\u8315
aV\u8deb
aV\u86e9
aV\u6a69
aV\u909b
aV\u749a
asVdie4
p1694
(lp1695
V\u800b
asV\u7c56
(lp1696
V\u7c56
asVyai2
p1697
(lp1698
V\u775a
asVcheng2
p1699
(lp1700
V\u6210
aV\u7a0b
aV\u57ce
aV\u627f
aV\u8bda
aV\u4e58
aV\u5448
aV\u60e9
aV\u6a59
aV\u6f84
aV\u4e1e
aV\u94d6
aV\u7d7e
aV\u63e8
aV\u57d5
aV\u88ce
aV\u5818
aV\u67a8
asVni1
p1701
(lp1702
V\u59ae
asVding3
p1703
(lp1704
V\u9876
aV\u9f0e
aV\u914a
aV\u9424
asVli3
p1705
(lp1706
V\u7406
aV\u91cc
aV\u793c
aV\u674e
aV\u9ca4
aV\u9502
aV\u4fda
aV\u6fa7
aV\u6d6c
aV\u6b10
aV\u9ce2
aV\u8c4a
aV\u91b4
asV\u7560
(lp1707
V\u7560
asV\u7364
(lp1708
V\u7364
asVshui2
p1709
(lp1710
V\u8c01
asVshui3
p1711
(lp1712
V\u6c34
asVcen2
p1713
(lp1714
V\u5c91
aV\u6d94
aV\u68a3
asVya4
p1715
(lp1716
V\u4e9a
aV\u8bb6
aV\u5a05
aV\u8f67
aV\u6c29
aV\u73a1
aV\u8fd3
aV\u63e0
aV\u7330
aV\u631c
asVzheng3
p1717
(lp1718
V\u6574
aV\u62ef
aV\u628d
aV\u649c
asVya1
p1719
(lp1720
V\u538b
aV\u62bc
aV\u5440
aV\u9e2d
aV\u9e26
aV\u4e2b
aV\u9d76
asVya3
p1721
(lp1722
V\u96c5
aV\u54d1
asVding4
p1723
(lp1724
V\u5b9a
aV\u8ba2
aV\u7887
aV\u5576
aV\u952d
aV\u815a
aV\u9964
asVlao4
p1725
(lp1726
V\u916a
aV\u6d9d
asVzhang1
p1727
(lp1728
V\u5f20
aV\u7ae0
aV\u5f70
aV\u87d1
aV\u748b
aV\u6a1f
aV\u6f33
aV\u9c46
aV\u9123
aV\u7cbb
asV\u61f3
(lp1729
V\u61f3
asVzhang3
p1730
(lp1731
V\u6da8
aV\u638c
asVzhang4
p1732
(lp1733
V\u969c
aV\u80c0
aV\u5e10
aV\u8d26
aV\u4e08
aV\u4ed7
aV\u6756
aV\u7634
aV\u5d82
aV\u6259
aV\u5e5b
asVlao1
p1734
(lp1735
V\u635e
asVlao2
p1736
(lp1737
V\u52b3
aV\u7262
aV\u5520
aV\u75e8
aV\u5d02
aV\u7a82
aV\u78f1
aV\u94f9
asVkuo4
p1738
(lp1739
V\u62ec
aV\u6269
aV\u9614
aV\u5ed3
aV\u86de
aV\u6ff6
asVdu1
p1740
(lp1741
V\u90fd
aV\u7763
aV\u561f
aV\u9607
asVdu2
p1742
(lp1743
V\u72ec
aV\u8bfb
aV\u6bd2
aV\u6e0e
aV\u728a
aV\u724d
aV\u9ee9
aV\u78a1
aV\u97e3
asVdu3
p1744
(lp1745
V\u8d4c
aV\u5835
aV\u7779
aV\u7b03
asVgei3
p1746
(lp1747
V\u7ed9
asVbing1
p1748
(lp1749
V\u51b0
aV\u5175
aV\u68b9
asVwu3
p1750
(lp1751
V\u4e94
aV\u5348
aV\u821e
aV\u6b66
aV\u4f0d
aV\u4fae
aV\u9e49
aV\u6342
aV\u59a9
aV\u5fe4
aV\u5e91
aV\u65ff
asVcheng4
p1752
(lp1753
V\u79e4
asVda4
p1754
(lp1755
V\u5927
aV\u7714
asVwu2
p1756
(lp1757
V\u65e0
aV\u5434
aV\u6bcb
aV\u543e
aV\u5514
aV\u829c
aV\u68a7
aV\u8bec
aV\u8708
aV\u9f2f
aV\u727e
aV\u9e40
asVzhua1
p1758
(lp1759
V\u6293
aV\u631d
asVxiao2
p1760
(lp1761
V\u80f6
aV\u7b05
aV\u8a24
asVtun1
p1762
(lp1763
V\u541e
aV\u5451
aV\u6d92
aV\u66be
asVmu4
p1764
(lp1765
V\u76ee
aV\u6728
aV\u5e55
aV\u7a46
aV\u52df
aV\u7267
aV\u5893
aV\u6155
aV\u6c90
aV\u7766
aV\u66ae
aV\u9e5c
aV\u82dc
aV\u94bc
aV\u9702
aV\u869e
asVzuan3
p1766
(lp1767
V\u7e82
aV\u7f35
asVpan1
p1768
(lp1769
V\u6f58
aV\u6500
aV\u7568
asVtun4
p1770
(lp1771
V\u892a
asVchai1
p1772
(lp1773
V\u62c6
aV\u9497
asVpei4
p1774
(lp1775
V\u914d
aV\u4f69
aV\u6c9b
aV\u73ee
aV\u5e14
aV\u9708
aV\u8f94
asV\u5692
(lp1776
V\u5692
asVpei2
p1777
(lp1778
V\u57f9
aV\u966a
aV\u8d54
aV\u88f4
asVcheng1
p1779
(lp1780
V\u79f0
aV\u6491
aV\u77a0
aV\u564c
aV\u86cf
aV\u7a6a
aV\u722f
asVpei1
p1781
(lp1782
V\u80da
aV\u5478
aV\u8843
aV\u600c
asVhan3
p1783
(lp1784
V\u7f55
aV\u558a
aV\u9b2b
asVhan2
p1785
(lp1786
V\u542b
aV\u97e9
aV\u6db5
aV\u5bd2
aV\u51fd
aV\u90af
aV\u7400
aV\u6657
aV\u51fe
asVhan1
p1787
(lp1788
V\u9f3e
aV\u61a8
aV\u9163
aV\u6b5b
aV\u86b6
aV\u5ae8
asVdao3
p1789
(lp1790
V\u5bfc
aV\u5c9b
aV\u5012
aV\u8e48
aV\u7977
aV\u6363
aV\u5d8c
asVni4
p1791
(lp1792
V\u9006
aV\u533f
aV\u6eba
aV\u817b
aV\u6635
aV\u7768
aV\u66b1
aV\u5b3a
aV\u7e0c
asVhan4
p1793
(lp1794
V\u6c49
aV\u7ff0
aV\u6c57
aV\u61be
aV\u65f1
aV\u64bc
aV\u634d
aV\u608d
aV\u710a
aV\u701a
aV\u988c
aV\u9894
aV\u83e1
aV\u5c7d
aV\u625e
aV\u8b40
aV\u650c
aV\u9844
aV\u95ec
aV\u6658
asVzhun4
p1795
(lp1796
V\u7a15
asVniang2
p1797
(lp1798
V\u5a18
asV\u88c7
(lp1799
V\u88c7
asVzhun3
p1800
(lp1801
V\u51c6
aV\u96bc
asVwu4
p1802
(lp1803
V\u52a1
aV\u7269
aV\u8bef
aV\u52ff
aV\u96fe
aV\u575e
aV\u6664
aV\u609f
aV\u620a
aV\u94a8
aV\u5140
aV\u9a9b
aV\u5a7a
aV\u5c7c
aV\u57ad
aV\u92c8
aV\u971a
aV\u6ea9
aV\u82b4
aV\u8601
aV\u7183
aV\u901c
aV\u6544
aV\u5be4
aV\u5966
asVsai5
p1804
(lp1805
V\u567b
asVzao2
p1806
(lp1807
V\u51ff
aV\u91a9
asVzao3
p1808
(lp1809
V\u65e9
aV\u6fa1
aV\u85fb
aV\u86a4
aV\u67a3
aV\u74aa
aV\u7f32
asVzao1
p1810
(lp1811
V\u906d
aV\u7cdf
asVzao4
p1812
(lp1813
V\u9020
aV\u566a
aV\u8e81
aV\u71e5
aV\u7682
aV\u7076
aV\u5523
asVgen4
p1814
(lp1815
V\u826e
aV\u4e98
aV\u831b
asV\u8fbc
(lp1816
V\u8fbc
asVzhu1
p1817
(lp1818
V\u8bf8
aV\u73e0
aV\u732a
aV\u6731
aV\u86db
aV\u682a
aV\u8331
aV\u4f8f
aV\u94e2
aV\u6d19
aV\u8bdb
aV\u6f74
aV\u6a65
aV\u52af
aV\u69e0
aV\u9bfa
asVlei2
p1819
(lp1820
V\u96f7
aV\u64c2
aV\u956d
aV\u7fb8
aV\u9f3a
asVzhu3
p1821
(lp1822
V\u4e3b
aV\u716e
aV\u8d2e
aV\u4e36
aV\u77a9
aV\u5631
aV\u62c4
aV\u6e1a
aV\u9e88
aV\u5b4e
aV\u782b
asVzhu2
p1823
(lp1824
V\u672f
aV\u7b51
aV\u9010
aV\u7af9
aV\u70db
aV\u7afa
aV\u8e85
aV\u7225
aV\u883e
asVsu1
p1825
(lp1826
V\u82cf
aV\u7a23
aV\u9165
aV\u8613
asVqiu4
p1827
(lp1828
V\u8791
asVri4
p1829
(lp1830
V\u65e5
aV\u91f0
asV\u8fcc
(lp1831
V\u8fcc
asVmin3
p1832
(lp1833
V\u654f
aV\u76bf
aV\u60af
aV\u95fd
aV\u6cef
aV\u62bf
aV\u95f5
aV\u9efe
aV\u52c4
aV\u668b
asVxia2
p1834
(lp1835
V\u8f96
aV\u5ce1
aV\u72ed
aV\u4fa0
aV\u971e
aV\u6687
aV\u7856
aV\u7455
aV\u5323
aV\u9050
aV\u9ee0
aV\u9c15
aV\u70da
aV\u7b1a
aV\u8578
aV\u8d6e
aV\u67d9
asVcan4
p1836
(lp1837
V\u707f
aV\u74a8
aV\u7cb2
asVxia1
p1838
(lp1839
V\u867e
aV\u778e
aV\u5477
aV\u935c
asVzhao3
p1840
(lp1841
V\u627e
aV\u6cbc
asVcan3
p1842
(lp1843
V\u60e8
asVzhao1
p1844
(lp1845
V\u671d
aV\u62db
aV\u662d
aV\u948a
aV\u76c4
asVcan1
p1846
(lp1847
V\u53c2
aV\u9910
asVnong2
p1848
(lp1849
V\u519c
aV\u6d53
aV\u4fac
aV\u8113
aV\u54dd
asVzhen3
p1850
(lp1851
V\u8bca
aV\u6795
aV\u75b9
aV\u7a39
aV\u7b09
aV\u755b
asVhen4
p1852
(lp1853
V\u6068
asVhen3
p1854
(lp1855
V\u5f88
aV\u72e0
aV\u4f77
aV\u54cf
aV\u8a6a
asVne4
p1856
(lp1857
V\u5450
aV\u8bb7
asVe1
p1858
(lp1859
V\u5a40
aV\u5a3f
aV\u94b6
asVai2
p1860
(lp1861
V\u764c
aV\u7691
asVfang3
p1862
(lp1863
V\u8bbf
aV\u4eff
aV\u7eba
aV\u822b
aV\u6609
aV\u9ae3
asVpa2
p1864
(lp1865
V\u722c
aV\u7436
asV\u66e2
(lp1866
V\u66e2
asVpa4
p1867
(lp1868
V\u6015
aV\u5e15
asVqiu3
p1869
(lp1870
V\u7cd7
asVsha4
p1871
(lp1872
V\u5565
aV\u53a6
aV\u970e
aV\u6b43
aV\u5551
aV\u553c
asVtang2
p1873
(lp1874
V\u5802
aV\u7cd6
aV\u5858
aV\u5510
aV\u68e0
aV\u819b
aV\u87b3
aV\u642a
aV\u746d
aV\u6e8f
aV\u8e3c
aV\u6a56
aV\u9395
aV\u645a
aV\u7cdb
asVyun1
p1875
(lp1876
V\u6655
aV\u6c32
aV\u8779
aV\u8d5f
aV\u596b
aV\u7f0a
asVyun2
p1877
(lp1878
V\u4e91
aV\u5300
aV\u82b8
aV\u8018
aV\u7ead
aV\u7b60
aV\u6985
aV\u6600
aV\u612a
asVyun3
p1879
(lp1880
V\u5141
aV\u9668
aV\u6b92
aV\u73a7
asVyun4
p1881
(lp1882
V\u8fd0
aV\u5b55
aV\u97f5
aV\u8574
aV\u915d
aV\u71a8
aV\u97eb
aV\u6120
aV\u607d
aV\u679f
aV\u8570
aV\u56e9
aV\u90d3
asVyao3
p1883
(lp1884
V\u54ac
aV\u8200
aV\u6773
aV\u7a88
aV\u95c4
aV\u9f69
aV\u9f3c
asVmie4
p1885
(lp1886
V\u706d
aV\u8511
aV\u7bfe
aV\u881b
aV\u9c74
aV\u7923
asVquan1
p1887
(lp1888
V\u5708
aV\u5f2e
aV\u609b
aV\u7d5f
asVshuan1
p1889
(lp1890
V\u6813
aV\u62f4
aV\u95e9
asVquan3
p1891
(lp1892
V\u72ac
aV\u7efb
aV\u545f
asVni2
p1893
(lp1894
V\u5c3c
aV\u5462
aV\u6ce5
aV\u502a
aV\u9713
aV\u576d
aV\u6029
aV\u8c8e
aV\u79dc
aV\u9cb5
asVshuan4
p1895
(lp1896
V\u6dae
asVjie1
p1897
(lp1898
V\u63a5
aV\u8857
aV\u63ed
aV\u9636
aV\u7686
aV\u79f8
aV\u55df
aV\u8149
aV\u8754
asVnuo2
p1899
(lp1900
V\u5a1c
aV\u632a
aV\u50a9
asV\u5481
(lp1901
V\u5481
asVzui1
p1902
(lp1903
V\u5d89
aV\u539c
aV\u7e97
asVnv4
p1904
(lp1905
V\u6712
asVnv3
p1906
(lp1907
V\u5973
aV\u9495
asVjie2
p1908
(lp1909
V\u7ed3
aV\u8282
aV\u6770
aV\u622a
aV\u6d01
aV\u6377
aV\u7aed
aV\u52ab
aV\u776b
aV\u62ee
aV\u6854
aV\u8bd8
aV\u5b51
aV\u8ba6
aV\u6840
aV\u9889
aV\u5a55
aV\u6809
aV\u7faf
aV\u7596
aV\u5048
aV\u5022
aV\u78a3
aV\u6828
aV\u55bc
aV\u9411
asVnuo4
p1910
(lp1911
V\u8bfa
aV\u61e6
aV\u7cef
aV\u633c
asVbeng2
p1912
(lp1913
V\u752d
asVkeng1
p1914
(lp1915
V\u5751
aV\u94ff
aV\u92b5
aV\u7841
aV\u52a5
asVmo2
p1916
(lp1917
V\u6a21
aV\u6469
aV\u9b54
aV\u78e8
aV\u8611
aV\u8c1f
aV\u6479
aV\u998d
aV\u7ce2
aV\u64f5
asVmo1
p1918
(lp1919
V\u6478
asV\u9d8d
(lp1920
V\u9d8d
asVbeng1
p1921
(lp1922
V\u5d29
aV\u7ef7
aV\u5623
aV\u794a
asVmo5
p1923
(lp1924
V\u9ebd
asVmo4
p1925
(lp1926
V\u9ed8
aV\u83ab
aV\u672b
aV\u58a8
aV\u6cab
aV\u6f20
aV\u819c
aV\u964c
aV\u5bde
aV\u8309
aV\u84e6
aV\u9286
aV\u8c98
aV\u79e3
aV\u781e
aV\u6b81
aV\u9546
aV\u8847
aV\u85e6
aV\u7c96
aV\u911a
asVye1
p1927
(lp1928
V\u564e
aV\u6654
asVsha3
p1929
(lp1930
V\u50bb
asVduo2
p1931
(lp1932
V\u593a
aV\u94ce
aV\u6387
aV\u6553
aV\u8957
aV\u656a
aV\u88f0
asVkai1
p1933
(lp1934
V\u5f00
aV\u63e9
asVbi4
p1935
(lp1936
V\u5fc5
aV\u5e01
aV\u907f
aV\u95ed
aV\u6bd5
aV\u58c1
aV\u81c2
aV\u5f0a
aV\u78a7
aV\u853d
aV\u5e87
aV\u6bd9
aV\u75f9
aV\u965b
aV\u88e8
aV\u74a7
aV\u54d4
aV\u610e
aV\u655d
aV\u7be6
aV\u5f3c
aV\u5a62
aV\u859c
aV\u8d32
aV\u835c
aV\u84d6
aV\u7b5a
aV\u9ac0
aV\u9cbe
aV\u94cb
aV\u9ab3
aV\u6bd6
aV\u8177
aV\u8df8
aV\u7b85
aV\u8e84
aV\u6890
aV\u7359
aV\u719a
aV\u8cb1
aV\u9946
aV\u895e
aV\u7765
aV\u9de9
aV\u5ee6
aV\u72f4
aV\u82fe
asVbi2
p1937
(lp1938
V\u9f3b
aV\u8378
asVbi3
p1939
(lp1940
V\u6bd4
aV\u7b14
aV\u5f7c
aV\u9119
aV\u4ffe
aV\u5315
aV\u5421
aV\u6ed7
aV\u59a3
aV\u868d
aV\u7595
aV\u6c98
aV\u79d5
asVpie1
p1941
(lp1942
V\u6487
aV\u77a5
aV\u762a
aV\u66bc
asV\u7b02
(lp1943
V\u7b02
asVlou3
p1944
(lp1945
V\u6402
aV\u7bd3
asVda1
p1946
(lp1947
V\u642d
aV\u54d2
aV\u8921
aV\u8037
aV\u6498
asVyao1
p1948
(lp1949
V\u4e48
aV\u9080
aV\u8170
aV\u5996
aV\u592d
aV\u5e7a
aV\u5406
aV\u7945
aV\u5593
asVhun4
p1950
(lp1951
V\u6df7
aV\u8be8
aV\u5031
aV\u5702
aV\u6eb7
asVhun2
p1952
(lp1953
V\u9b42
aV\u6d51
aV\u9984
aV\u992b
aV\u73f2
asVhun1
p1954
(lp1955
V\u5a5a
aV\u660f
aV\u8364
aV\u960d
aV\u60db
asVwang1
p1956
(lp1957
V\u6c6a
aV\u5c22
asVqiao2
p1958
(lp1959
V\u4e54
aV\u6865
aV\u77a7
aV\u7fd8
aV\u4fa8
aV\u6194
aV\u6a35
aV\u835e
aV\u8c2f
asVtiao2
p1960
(lp1961
V\u6761
aV\u8fe2
aV\u9ca6
aV\u82d5
aV\u7b24
aV\u9f86
aV\u9797
aV\u5cb9
asVlan4
p1962
(lp1963
V\u6ee5
aV\u70c2
aV\u7f06
aV\u9567
asVren4
p1964
(lp1965
V\u4efb
aV\u8ba4
aV\u8d41
aV\u996a
aV\u97e7
aV\u5203
aV\u598a
aV\u7eab
aV\u8f6b
aV\u4ede
aV\u6268
aV\u5c7b
aV\u6041
aV\u976d
aV\u7263
aV\u4eed
aV\u88b5
aV\u6895
aV\u887d
asVdai1
p1966
(lp1967
V\u5446
aV\u5454
asVzui3
p1968
(lp1969
V\u5634
aV\u6fe2
aV\u567f
asVlan2
p1970
(lp1971
V\u5170
aV\u84dd
aV\u680f
aV\u7bee
aV\u62e6
aV\u5a6a
aV\u6f9c
aV\u6593
aV\u9611
aV\u5c9a
aV\u5549
aV\u53b1
aV\u8c30
aV\u56d2
asVgang4
p1972
(lp1973
V\u6206
asVhong4
p1974
(lp1975
V\u9359
asVhong3
p1976
(lp1977
V\u664e
asVcou4
p1978
(lp1979
V\u51d1
aV\u6971
aV\u8f8f
asVhong1
p1980
(lp1981
V\u8f70
aV\u70d8
aV\u54c4
aV\u8a07
aV\u544d
asVgang1
p1982
(lp1983
V\u521a
aV\u94a2
aV\u6760
aV\u7eb2
aV\u5188
aV\u7f38
aV\u809b
aV\u7f61
aV\u51ae
asVchan2
p1984
(lp1985
V\u7f20
aV\u8749
aV\u6f7a
aV\u87fe
aV\u998b
aV\u5b71
aV\u5a75
aV\u6fb6
aV\u8c17
aV\u703a
aV\u5296
aV\u700d
aV\u9575
asVhong2
p1986
(lp1987
V\u7ea2
aV\u89e6
aV\u5b8f
aV\u6d2a
aV\u9e3f
aV\u8679
aV\u5f18
aV\u6cd3
aV\u8ba7
aV\u7d8b
aV\u95f3
aV\u57ac
aV\u5d64
aV\u921c
aV\u7eae
aV\u6d64
aV\u8c39
aV\u8453
aV\u7fdd
aV\u7ae4
aV\u836d
aV\u82f0
aV\u7074
asVsha1
p1988
(lp1989
V\u6c99
aV\u6740
aV\u838e
aV\u9ca8
aV\u7eb1
aV\u7802
aV\u715e
aV\u88df
aV\u94e9
aV\u75e7
aV\u5e34
aV\u9bbb
asVjie4
p1990
(lp1991
V\u754c
aV\u4ecb
aV\u501f
aV\u5c4a
aV\u6212
aV\u85c9
aV\u8beb
aV\u82a5
aV\u75a5
aV\u583a
aV\u73a0
aV\u8ea4
aV\u86a7
aV\u780e
aV\u7297
asVguan3
p1992
(lp1993
V\u7ba1
aV\u9986
asVguan1
p1994
(lp1995
V\u5173
aV\u89c2
aV\u5b98
aV\u51a0
aV\u68fa
aV\u839e
aV\u500c
aV\u761d
aV\u95a2
aV\u9c5e
asVbo3
p1996
(lp1997
V\u8ddb
aV\u7ba5
aV\u86be
asVguan4
p1998
(lp1999
V\u60ef
aV\u8d2f
aV\u704c
aV\u7f50
aV\u76e5
aV\u9e73
aV\u9475
aV\u63bc
aV\u797c
aV\u8b34
asVjie3
p2000
(lp2001
V\u89e3
aV\u59d0
aV\u89e7
asVbi1
p2002
(lp2003
V\u903c
aV\u5c44
asVye3
p2004
(lp2005
V\u4e5f
aV\u91ce
aV\u51b6
aV\u5414
aV\u5622
asVye2
p2006
(lp2007
V\u8036
aV\u7237
aV\u6930
aV\u63f6
asVdai3
p2008
(lp2009
V\u6b79
aV\u50a3
aV\u6b7a
asVsao4
p2010
(lp2011
V\u57fd
aV\u55bf
asVgong1
p2012
(lp2013
V\u516c
aV\u5de5
aV\u4f9b
aV\u529f
aV\u653b
aV\u5bab
aV\u606d
aV\u5f13
aV\u9f9a
aV\u8eac
aV\u86a3
aV\u89e5
aV\u80b1
aV\u7cfc
aV\u7be2
aV\u739c
asVgong3
p2014
(lp2015
V\u5de9
aV\u6c5e
aV\u62f1
aV\u73d9
aV\u5efe
asVgong4
p2016
(lp2017
V\u5171
aV\u8d21
asVcu2
p2018
(lp2019
V\u8c60
asV\u74e7
(lp2020
V\u74e7
asV\u6766
(lp2021
V\u6766
asVka3
p2022
(lp2023
V\u5494
aV\u4f67
asV\u55ed
(lp2024
V\u55ed
asVsong1
p2025
(lp2026
V\u677e
aV\u5d69
aV\u6dde
aV\u5d27
aV\u9536
aV\u51c7
aV\u61bd
aV\u5a00
aV\u6780
aV\u7879
aV\u83d8
asVshuai4
p2027
(lp2028
V\u5e05
aV\u87c0
asVshou4
p2029
(lp2030
V\u53d7
aV\u552e
aV\u6388
aV\u5bff
aV\u517d
aV\u7626
aV\u72e9
aV\u7ef6
aV\u75e9
asVqie3
p2031
(lp2032
V\u4e14
asVshou3
p2033
(lp2034
V\u624b
aV\u9996
aV\u5b88
aV\u57a8
aV\u824f
asVshou1
p2035
(lp2036
V\u6536
aV\u53ce
aV\u834d
asVha1
p2037
(lp2038
V\u54c8
asVha2
p2039
(lp2040
V\u86e4
asVchuo4
p2041
(lp2042
V\u7ef0
aV\u8f8d
aV\u555c
aV\u9f8a
aV\u8da0
aV\u918a
aV\u5a65
asV\u9786
(lp2043
V\u9786
asVxiang3
p2044
(lp2045
V\u60f3
aV\u54cd
aV\u4eab
aV\u9977
aV\u98e8
aV\u995f
aV\u9c76
aV\u9c9e
asVzhun1
p2046
(lp2047
V\u8c06
asVni3
p2048
(lp2049
V\u4f60
aV\u62df
aV\u94cc
aV\u65ce
aV\u62b3
aV\u82e8
aV\u4f32
aV\u9268
asVwei4
p2050
(lp2051
V\u4e3a
aV\u4f4d
aV\u672a
aV\u5473
aV\u536b
aV\u8c13
aV\u5582
aV\u6170
aV\u80c3
aV\u754f
aV\u9b4f
aV\u5c09
aV\u885e
aV\u851a
aV\u732c
aV\u6e2d
aV\u85ef
aV\u8b8f
aV\u82ff
asVwei3
p2052
(lp2053
V\u59d4
aV\u4f1f
aV\u5c3e
aV\u4f2a
aV\u7eac
aV\u5a13
aV\u7325
aV\u709c
aV\u73ae
aV\u82c7
aV\u75ff
aV\u8bff
aV\u9c94
aV\u6d58
aV\u8249
aV\u97ea
aV\u68b6
aV\u8624
aV\u9aaa
aV\u8732
aV\u97e1
aV\u8371
aV\u84f6
asVpen1
p2054
(lp2055
V\u55b7
aV\u6b55
asVwei1
p2056
(lp2057
V\u5371
aV\u5a01
aV\u5fae
aV\u840e
aV\u5dcd
aV\u504e
aV\u8473
aV\u5d34
aV\u502d
aV\u9688
aV\u7168
aV\u9036
aV\u55b4
aV\u8a74
aV\u78a8
aV\u8468
asVxiang4
p2058
(lp2059
V\u9879
aV\u5411
aV\u50cf
aV\u8c61
aV\u6a61
aV\u5df7
aV\u8683
aV\u95c2
aV\u95c0
aV\u842b
aV\u9c4c
aV\u87d3
asVshen1
p2060
(lp2061
V\u8eab
aV\u7533
aV\u6df1
aV\u4f38
aV\u7ec5
aV\u71ca
aV\u7837
aV\u5a20
aV\u547b
aV\u8398
aV\u8bdc
aV\u5c7e
aV\u9cb9
aV\u515f
aV\u73c5
aV\u80c2
aV\u8a37
asV\u90a4
(lp2062
V\u90a4
asVshen3
p2063
(lp2064
V\u5ba1
aV\u6c88
aV\u5a76
aV\u5432
aV\u8c02
aV\u54c2
aV\u9823
aV\u5f1e
asVshen2
p2065
(lp2066
V\u795e
aV\u751a
asVxiu3
p2067
(lp2068
V\u673d
asVshen4
p2069
(lp2070
V\u614e
aV\u6e17
aV\u80be
aV\u8703
aV\u62bb
aV\u7606
aV\u6939
aV\u613c
asVcun3
p2071
(lp2072
V\u5fd6
asVru2
p2073
(lp2074
V\u5982
aV\u5112
aV\u8815
aV\u8339
aV\u5b7a
aV\u6fe1
aV\u5685
aV\u8966
aV\u909a
asVru3
p2075
(lp2076
V\u4e73
aV\u8fb1
aV\u6c5d
aV\u94f7
aV\u8097
asVru4
p2077
(lp2078
V\u5165
aV\u7f1b
aV\u8925
aV\u6d33
aV\u910f
aV\u55d5
aV\u6ebd
asVzu2
p2079
(lp2080
V\u8db3
aV\u65cf
aV\u5352
aV\u955e
aV\u5d2a
asVzu3
p2081
(lp2082
V\u7ec4
aV\u963b
aV\u7956
aV\u8bc5
aV\u4fce
asVpiao4
p2083
(lp2084
V\u7968
aV\u527d
aV\u5ad6
aV\u9aa0
aV\u52e1
asVcun1
p2085
(lp2086
V\u6751
aV\u90a8
aV\u76b4
asVpiao2
p2087
(lp2088
V\u74e2
asVrang2
p2089
(lp2090
V\u74e4
aV\u7a70
aV\u737d
aV\u5134
asVpiao1
p2091
(lp2092
V\u6f02
aV\u98d8
aV\u560c
asVqi2
p2093
(lp2094
V\u5176
aV\u5947
aV\u65d7
aV\u9f50
aV\u6b67
aV\u9a91
aV\u7948
aV\u68cb
aV\u742a
aV\u5d0e
aV\u6dc7
aV\u7881
aV\u7426
aV\u5c90
aV\u9ccd
aV\u8006
aV\u8110
aV\u9e92
aV\u797a
aV\u7947
aV\u7941
aV\u82aa
aV\u6391
aV\u573b
aV\u8360
aV\u7382
aV\u7566
aV\u86f4
aV\u9880
aV\u91ee
aV\u8572
aV\u57fc
aV\u8401
aV\u4e93
aV\u9a90
aV\u7482
aV\u871e
aV\u913f
aV\u8269
aV\u7da6
aV\u8879
aV\u9d78
asV\u7cac
(lp2095
V\u7cac
asVkao4
p2096
(lp2097
V\u9760
aV\u94d0
aV\u7292
asVqin4
p2098
(lp2099
V\u6c81
aV\u63ff
aV\u5422
asVfei1
p2100
(lp2101
V\u975e
aV\u98de
aV\u83f2
aV\u5561
aV\u5983
aV\u871a
aV\u6249
aV\u7eef
aV\u970f
aV\u9cb1
aV\u9a1b
asV\u5a33
(lp2102
V\u5a33
asVfei3
p2103
(lp2104
V\u532a
aV\u6590
aV\u8bfd
aV\u7fe1
aV\u60b1
aV\u69a7
asVfei4
p2105
(lp2106
V\u8d39
aV\u5e9f
aV\u80ba
aV\u6cb8
aV\u72d2
aV\u5420
aV\u9544
aV\u82be
aV\u75f1
aV\u9745
aV\u66ca
asVcun4
p2107
(lp2108
V\u5bf8
aV\u540b
asVqin2
p2109
(lp2110
V\u7434
aV\u79bd
aV\u52e4
aV\u79e6
aV\u82b9
aV\u64d2
aV\u55ea
aV\u5659
aV\u8039
aV\u8699
aV\u83e6
asVqin3
p2111
(lp2112
V\u5bdd
asV\u7b39
(lp2113
V\u7b39
asVnao4
p2114
(lp2115
V\u95f9
aV\u6dd6
asVzang4
p2116
(lp2117
V\u846c
aV\u5958
asVzang3
p2118
(lp2119
V\u9a75
asVnao3
p2120
(lp2121
V\u8111
aV\u607c
aV\u7459
aV\u78af
asVo1
p2122
(lp2123
V\u5662
aV\u5594
asV\u7874
(lp2124
V\u7874
asV\u5f41
(lp2125
V\u5f41
asVtui3
p2126
(lp2127
V\u817f
asVxie4
p2128
(lp2129
V\u8c22
aV\u6cc4
aV\u68b0
aV\u5378
aV\u6cfb
aV\u5c51
aV\u61c8
aV\u87f9
aV\u4eb5
aV\u9082
aV\u69ad
aV\u7023
aV\u71ee
aV\u7f37
aV\u97a2
aV\u598e
aV\u5a9f
aV\u7944
aV\u85a4
aV\u7ec1
aV\u9f58
aV\u5c5f
aV\u736c
aV\u63f3
asVtui1
p2130
(lp2131
V\u63a8
asV\u8945
(lp2132
V\u8945
asVxie3
p2133
(lp2134
V\u5199
aV\u8840
asVtui4
p2135
(lp2136
V\u9000
asVxie1
p2137
(lp2138
V\u4e9b
aV\u6b47
aV\u6954
asVshai1
p2139
(lp2140
V\u7b5b
asVshuai3
p2141
(lp2142
V\u7529
asVping1
p2143
(lp2144
V\u4e52
aV\u5a09
asVling3
p2145
(lp2146
V\u9886
asVyang1
p2147
(lp2148
V\u592e
aV\u6b83
aV\u9e2f
aV\u79e7
aV\u6cf1
aV\u770f
aV\u59ce
asVping2
p2149
(lp2150
V\u5e73
aV\u8bc4
aV\u82f9
aV\u5c4f
aV\u51ed
aV\u74f6
aV\u576a
aV\u840d
aV\u546f
aV\u617f
aV\u67b0
aV\u9c86
aV\u84f1
asVhai2
p2151
(lp2152
V\u5b69
aV\u9ab8
aV\u988f
asVhai3
p2153
(lp2154
V\u6d77
asVshe4
p2155
(lp2156
V\u8bbe
aV\u793e
aV\u6444
aV\u5c04
aV\u6d89
aV\u820d
aV\u6151
aV\u8d66
aV\u9e9d
aV\u731e
aV\u6442
asVhai1
p2157
(lp2158
V\u55e8
asVshe2
p2159
(lp2160
V\u86c7
aV\u820c
aV\u4f58
aV\u9366
aV\u94ca
asVkong1
p2161
(lp2162
V\u7a7a
aV\u7b9c
aV\u60be
aV\u5025
aV\u5d06
aV\u9d7c
asVhai4
p2163
(lp2164
V\u5bb3
aV\u4ea5
aV\u9a87
aV\u6c26
aV\u9900
asVkong3
p2165
(lp2166
V\u6050
aV\u5b54
asVfu2
p2167
(lp2168
V\u670d
aV\u798f
aV\u5e45
aV\u7b26
aV\u5f17
aV\u6d6e
aV\u4f0f
aV\u8f90
aV\u6276
aV\u8760
aV\u5b5a
aV\u8299
aV\u7f1a
aV\u4fd8
aV\u6c1f
aV\u5dff
aV\u88b1
aV\u62c2
aV\u8709
aV\u5310
aV\u6daa
aV\u51eb
aV\u82a3
aV\u7953
aV\u98ab
aV\u8e3e
aV\u7d8d
aV\u7ecb
aV\u7550
aV\u7d65
aV\u8274
aV\u9efb
asVlong4
p2169
(lp2170
V\u6335
aV\u5fbf
asV\u84dc
(lp2171
V\u84dc
asVfu3
p2172
(lp2173
V\u5e9c
aV\u8f85
aV\u8150
aV\u629a
aV\u4fef
aV\u65a7
aV\u752b
aV\u91dc
aV\u812f
aV\u8151
aV\u8386
aV\u5452
aV\u7c20
aV\u62ca
aV\u90d9
asVmao3
p2174
(lp2175
V\u536f
aV\u6634
aV\u5187
aV\u5cc1
aV\u7b37
asVmao2
p2176
(lp2177
V\u6bdb
aV\u77db
aV\u8305
aV\u9ae6
aV\u951a
aV\u8765
aV\u7266
aV\u87ca
aV\u5825
aV\u5af9
asVmao1
p2178
(lp2179
V\u732b
asVhou2
p2180
(lp2181
V\u7334
aV\u5589
aV\u4faf
aV\u7cc7
aV\u760a
aV\u9297
aV\u77e6
aV\u7bcc
aV\u9bf8
asVfo2
p2182
(lp2183
V\u4f5b
asVmao4
p2184
(lp2185
V\u8d38
aV\u5192
aV\u8c8c
aV\u5e3d
aV\u8302
aV\u61cb
aV\u88a4
aV\u7441
aV\u8004
aV\u5aa2
aV\u7790
asV\u51ea
(lp2186
V\u51ea
asV\u7cec
(lp2187
V\u7cec
asVku1
p2188
(lp2189
V\u54ed
aV\u67af
aV\u7a9f
aV\u9ab7
aV\u630e
aV\u5800
aV\u8f71
aV\u8dcd
aV\u5710
aV\u5233
asVxin1
p2190
(lp2191
V\u65b0
aV\u5fc3
aV\u85aa
aV\u6b23
aV\u8f9b
aV\u82af
aV\u99a8
aV\u950c
aV\u946b
aV\u6615
aV\u5ffb
aV\u6b46
aV\u677a
aV\u5677
aV\u7098
asVcha1
p2192
(lp2193
V\u63d2
aV\u53c9
aV\u6748
aV\u505b
aV\u55cf
asVpang4
p2194
(lp2195
V\u80d6
asVwang3
p2196
(lp2197
V\u7f51
aV\u5f80
aV\u6789
aV\u7f54
aV\u60d8
aV\u8f8b
aV\u6680
aV\u8ab7
aV\u5ff9
asVai4
p2198
(lp2199
V\u7231
aV\u827e
aV\u788d
aV\u9698
aV\u66a7
aV\u55f3
aV\u53c6
aV\u5ad2
aV\u5867
aV\u77b9
aV\u50fe
aV\u58d2
asVqian4
p2200
(lp2201
V\u6b49
aV\u6b20
aV\u5d4c
aV\u831c
aV\u5029
aV\u520b
aV\u5811
aV\u82a1
aV\u7daa
aV\u68c8
aV\u614a
aV\u6093
aV\u84a8
aV\u7bdf
asVjue1
p2202
(lp2203
V\u6485
aV\u5658
asVjue2
p2204
(lp2205
V\u51b3
aV\u89c9
aV\u7edd
aV\u7235
aV\u6398
aV\u5d1b
aV\u8bc0
aV\u6289
aV\u7357
aV\u652b
aV\u53a5
aV\u5671
aV\u5014
aV\u8e76
aV\u8568
aV\u8c32
aV\u9562
aV\u5b53
aV\u67fd
aV\u52ea
aV\u77cd
aV\u73cf
aV\u6877
aV\u8697
aV\u8c9c
aV\u8d7d
aV\u5d51
aV\u9cdc
aV\u50ea
asVca1
p2206
(lp2207
V\u64e6
aV\u5693
asVqian2
p2208
(lp2209
V\u524d
aV\u94b1
aV\u6f5c
aV\u8654
aV\u94b3
aV\u63ae
aV\u9ed4
aV\u7b9d
aV\u94a4
asVqian3
p2210
(lp2211
V\u6d45
aV\u9063
aV\u8c34
aV\u7f31
asVfu4
p2212
(lp2213
V\u590d
aV\u5bcc
aV\u8d1f
aV\u4ed8
aV\u9644
aV\u7236
aV\u526f
aV\u5987
aV\u8986
aV\u8d4b
aV\u8d74
aV\u8179
aV\u5085
aV\u5490
aV\u8914
aV\u8ba3
aV\u99a5
aV\u961c
aV\u9a78
aV\u876e
aV\u9351
aV\u9c8b
aV\u889d
aV\u5069
aV\u5b14
asVdui4
p2214
(lp2215
V\u5bf9
aV\u961f
aV\u5151
aV\u603c
aV\u7893
aV\u85b1
aV\u941c
aV\u5bfe
asVshuai1
p2216
(lp2217
V\u8870
aV\u6454
aV\u7f1e
asVhuan3
p2218
(lp2219
V\u7f13
aV\u7746
aV\u5d48
asVbu3
p2220
(lp2221
V\u8865
aV\u6355
aV\u535c
aV\u54fa
aV\u535f
asVnan3
p2222
(lp2223
V\u8169
aV\u8d67
asVlin4
p2224
(lp2225
V\u541d
aV\u8e8f
aV\u853a
aV\u7ca6
asVlin3
p2226
(lp2227
V\u51db
aV\u6aa9
aV\u5eea
aV\u61d4
aV\u765d
aV\u649b
asVqu3
p2228
(lp2229
V\u53d6
aV\u5a36
aV\u9f8b
aV\u7d36
aV\u7b41
asVbu4
p2230
(lp2231
V\u4e0d
aV\u90e8
aV\u5e03
aV\u6b65
aV\u6016
aV\u57d7
aV\u7c3f
aV\u57e0
aV\u949a
aV\u94b8
aV\u6b69
asVde5
p2232
(lp2233
V\u7684
asVju2
p2234
(lp2235
V\u5c40
aV\u83ca
aV\u6a58
aV\u7117
aV\u63ac
aV\u5a45
aV\u6dd7
aV\u6be9
aV\u97ab
aV\u6bf1
aV\u9113
aV\u9514
asVju3
p2236
(lp2237
V\u4e3e
aV\u5480
aV\u77e9
aV\u849f
aV\u8e3d
aV\u67b8
aV\u9f83
aV\u6989
aV\u8893
aV\u6907
asVju1
p2238
(lp2239
V\u5c45
aV\u62d8
aV\u6cae
aV\u72d9
aV\u9a79
aV\u97a0
aV\u75bd
aV\u741a
aV\u88fe
aV\u82f4
aV\u8d84
aV\u6910
aV\u9d21
aV\u6dba
aV\u5ca8
aV\u5d0c
aV\u9671
aV\u7f5d
asVrao4
p2240
(lp2241
V\u7ed5
aV\u96a2
asVju4
p2242
(lp2243
V\u636e
aV\u5177
aV\u5267
aV\u5de8
aV\u62d2
aV\u805a
aV\u8ddd
aV\u53e5
aV\u4ff1
aV\u60e7
aV\u70ac
aV\u98d3
aV\u952f
aV\u8e1e
aV\u82e3
aV\u907d
aV\u949c
aV\u77bf
aV\u52ee
aV\u5036
aV\u5028
aV\u8bb5
aV\u57e7
aV\u6007
aV\u8e86
aV\u601a
aV\u6d30
aV\u5c66
aV\u6b6b
asVbao3
p2244
(lp2245
V\u4fdd
aV\u5b9d
aV\u5821
aV\u9971
aV\u8446
aV\u8913
aV\u8934
aV\u9e28
aV\u5bf3
aV\u9cf5
aV\u5bda
asVshan4
p2246
(lp2247
V\u5584
aV\u64c5
aV\u81b3
aV\u6247
aV\u7985
aV\u8d61
aV\u7f2e
aV\u8baa
aV\u759d
aV\u6c55
aV\u9cdd
aV\u5b17
aV\u9a9f
aV\u58a0
aV\u994d
aV\u9490
aV\u9c53
aV\u912f
aV\u7057
aV\u8d78
asVzha2
p2248
(lp2249
V\u95f8
aV\u672d
aV\u94e1
aV\u7d25
aV\u7534
aV\u8b57
asVshan1
p2250
(lp2251
V\u5c71
aV\u73ca
aV\u6749
aV\u886b
aV\u5220
aV\u717d
aV\u8dda
aV\u59d7
aV\u8222
aV\u6f78
aV\u6427
aV\u633b
aV\u829f
asVpi2
p2252
(lp2253
V\u76ae
aV\u75b2
aV\u5564
aV\u6bd7
aV\u813e
aV\u7435
aV\u8731
aV\u7eb0
aV\u8298
aV\u80b6
aV\u7b13
aV\u6bd8
aV\u6787
aV\u9630
aV\u73ad
aV\u9f19
asVshan3
p2254
(lp2255
V\u95ea
aV\u9655
asVshu3
p2256
(lp2257
V\u7f72
aV\u5c5e
aV\u9f20
aV\u85af
aV\u6691
aV\u8700
aV\u9ecd
aV\u6f7b
asV\u96a1
(lp2258
V\u96a1
asVlv4
p2259
(lp2260
V\u7387
aV\u5f8b
aV\u8651
aV\u7eff
aV\u6ee4
aV\u6c2f
aV\u5bfd
asV\u9422
(lp2261
V\u9422
asVlv3
p2262
(lp2263
V\u65c5
aV\u94dd
aV\u5c65
aV\u4fa3
aV\u5c61
aV\u5415
aV\u7f15
aV\u891b
aV\u507b
aV\u7a06
aV\u7d7d
asVfan2
p2264
(lp2265
V\u7e41
aV\u70e6
aV\u51e1
aV\u85e9
aV\u6a0a
aV\u77fe
aV\u8543
aV\u9492
aV\u52eb
aV\u894e
aV\u9407
aV\u81b0
aV\u7dd0
aV\u7c75
aV\u71d4
asVbian3
p2266
(lp2267
V\u8d2c
aV\u6241
aV\u533e
aV\u890a
aV\u78a5
asVpi4
p2268
(lp2269
V\u5c41
aV\u8f9f
aV\u8b6c
aV\u5ab2
aV\u50fb
aV\u9e0a
aV\u5ad3
aV\u6fde
asVying2
p2270
(lp2271
V\u8425
aV\u8fce
aV\u8d62
aV\u76c8
aV\u8747
aV\u8367
aV\u83b9
aV\u8424
aV\u8426
aV\u701b
aV\u5b34
aV\u6979
aV\u8314
aV\u76c1
aV\u6e81
aV\u6f46
aV\u8365
aV\u843e
asVying3
p2272
(lp2273
V\u5f71
aV\u9896
aV\u988d
aV\u90e2
aV\u9895
aV\u763f
aV\u7484
aV\u6d67
asVying4
p2274
(lp2275
V\u5e94
aV\u6620
aV\u786c
aV\u6ee2
aV\u84e5
aV\u668e
aV\u9795
asVliu4
p2276
(lp2277
V\u516d
aV\u998f
aV\u78c2
aV\u5ec7
aV\u7542
aV\u5774
asVbian4
p2278
(lp2279
V\u53d8
aV\u4fbf
aV\u904d
aV\u8fa9
aV\u8fa8
aV\u8fab
aV\u6c74
aV\u535e
aV\u5f01
aV\u82c4
aV\u8fa7
aV\u8fa1
aV\u5909
aV\u662a
asVci3
p2280
(lp2281
V\u6b64
asVci2
p2282
(lp2283
V\u8bcd
aV\u8f9e
aV\u8328
aV\u6148
aV\u78c1
aV\u74f7
aV\u96cc
aV\u7960
aV\u9908
aV\u8f9d
asVci1
p2284
(lp2285
V\u75b5
asVqi3
p2286
(lp2287
V\u8d77
aV\u4f01
aV\u542f
aV\u4e5e
aV\u5c82
aV\u7eee
aV\u675e
aV\u5c7a
aV\u68e8
aV\u6675
aV\u9094
asVxiang2
p2288
(lp2289
V\u8be6
aV\u7965
aV\u7fd4
aV\u6819
aV\u7d74
asV\u6a72
(lp2290
V\u6a72
asVyin2
p2291
(lp2292
V\u94f6
aV\u6deb
aV\u541f
aV\u5bc5
aV\u9ccf
aV\u57a0
aV\u911e
aV\u8a21
aV\u5924
aV\u972a
aV\u5198
aV\u8a1a
aV\u921d
aV\u87eb
asVxiao3
p2293
(lp2294
V\u5c0f
aV\u6653
aV\u7b71
aV\u7be0
asVa2
p2295
(lp2296
V\u55c4
asVgua1
p2297
(lp2298
V\u74dc
aV\u522e
aV\u8717
aV\u8052
aV\u80cd
aV\u681d
aV\u61d6
asVlun3
p2299
(lp2300
V\u7a10
asVlun2
p2301
(lp2302
V\u4f26
aV\u8f6e
aV\u4ed1
aV\u6ca6
aV\u7eb6
aV\u62a1
aV\u56f5
aV\u60c0
aV\u9be9
aV\u966f
asV\u7c42
(lp2303
V\u7c42
asVcuo1
p2304
(lp2305
V\u78cb
aV\u64ae
aV\u6413
aV\u8e49
asVcuo3
p2306
(lp2307
V\u7473
asVcuo2
p2308
(lp2309
V\u75e4
aV\u77ec
aV\u5d6f
aV\u9e7e
asVkou1
p2310
(lp2311
V\u62a0
asVkou3
p2312
(lp2313
V\u53e3
asVkou4
p2314
(lp2315
V\u6263
aV\u5bc7
aV\u853b
aV\u53e9
aV\u4f5d
aV\u51a6
aV\u7789
aV\u7b58
aV\u5bbc
asVyue4
p2316
(lp2317
V\u6708
aV\u8d8a
aV\u9605
aV\u8dc3
aV\u7ca4
aV\u60a6
aV\u5cb3
aV\u7039
aV\u73a5
aV\u94ba
aV\u5c84
aV\u6a3e
aV\u7bd7
aV\u5216
aV\u8625
asVlie3
p2318
(lp2319
V\u54a7
asVqie1
p2320
(lp2321
V\u5207
asVza1
p2322
(lp2323
V\u5482
aV\u531d
asVlie4
p2324
(lp2325
V\u5217
aV\u70c8
aV\u88c2
aV\u730e
aV\u52a3
aV\u9b23
aV\u9c72
aV\u6369
aV\u51bd
aV\u6d0c
aV\u8d94
aV\u8e90
aV\u98b2
aV\u8ffe
asVqie2
p2326
(lp2327
V\u4f3d
aV\u8304
aV\u767f
asVjia1
p2328
(lp2329
V\u5bb6
aV\u52a0
aV\u4f73
aV\u5609
aV\u5939
aV\u8fe6
aV\u67b7
aV\u73c8
aV\u8888
aV\u9553
aV\u7b33
aV\u8dcf
aV\u75c2
aV\u846d
aV\u801e
aV\u8c6d
aV\u5e4f
aV\u4e6b
asVjia2
p2330
(lp2331
V\u988a
aV\u621b
aV\u835a
aV\u86f1
aV\u6d43
aV\u94ea
aV\u6274
aV\u57c9
aV\u90cf
aV\u605d
aV\u689c
aV\u621e
asVjia3
p2332
(lp2333
V\u5047
aV\u7532
aV\u8d3e
aV\u94be
aV\u5cac
aV\u80db
aV\u5fa6
asVyou3
p2334
(lp2335
V\u6709
aV\u53cb
aV\u9edd
aV\u83a0
aV\u9149
aV\u94d5
aV\u870f
aV\u6cd1
aV\u682f
asVyou2
p2336
(lp2337
V\u7531
aV\u6e38
aV\u6cb9
aV\u90ae
aV\u5c24
aV\u72b9
aV\u94c0
aV\u9c7f
aV\u7337
aV\u75a3
aV\u8763
aV\u83b8
aV\u9c89
asVyou1
p2338
(lp2339
V\u4f18
aV\u5fe7
aV\u5e7d
aV\u60a0
aV\u6538
aV\u5466
aV\u913e
asVzhui4
p2340
(lp2341
V\u5760
aV\u7f00
aV\u8d58
aV\u60f4
aV\u7aa1
aV\u9d7d
asVhe4
p2342
(lp2343
V\u8d6b
aV\u8d3a
aV\u9e64
aV\u58d1
aV\u974f
asVlian3
p2344
(lp2345
V\u8138
aV\u81a6
asVla5
p2346
(lp2347
V\u5566
asVhua2
p2348
(lp2349
V\u5212
aV\u534e
aV\u6ed1
aV\u733e
aV\u94e7
aV\u9a85
aV\u5b05
asVhe1
p2350
(lp2351
V\u559d
aV\u5475
aV\u8bc3
aV\u55ec
asV\u95e7
(lp2352
V\u95e7
asV\u7666
(lp2353
V\u7666
asV\u88c4
(lp2354
V\u88c4
asVyuan1
p2355
(lp2356
V\u6e0a
aV\u51a4
aV\u9e33
aV\u9e22
aV\u5bc3
aV\u7ba2
aV\u6e06
aV\u8735
aV\u6e15
asVlou4
p2357
(lp2358
V\u6f0f
aV\u964b
aV\u9542
asVyuan3
p2359
(lp2360
V\u8fdc
asVyuan4
p2361
(lp2362
V\u9662
aV\u613f
aV\u6028
aV\u82d1
aV\u5a9b
aV\u63be
asVniang4
p2363
(lp2364
V\u917f
asVsui3
p2365
(lp2366
V\u9ad3
asVleng4
p2367
(lp2368
V\u6123
asV\u9bf3
(lp2369
V\u9bf3
asV\u5c72
(lp2370
V\u5c72
asVdia3
p2371
(lp2372
V\u55f2
asVshi2
p2373
(lp2374
V\u65f6
aV\u5b9e
aV\u5341
aV\u4ec0
aV\u98df
aV\u77f3
aV\u62fe
aV\u8680
aV\u83b3
aV\u9250
aV\u6e41
aV\u5bd4
aV\u9ca5
aV\u6e5c
asVleng3
p2375
(lp2376
V\u51b7
asVleng2
p2377
(lp2378
V\u68f1
aV\u695e
asV\u9b78
(lp2379
V\u9b78
asVwa4
p2380
(lp2381
V\u889c
aV\u97c8
asVwa3
p2382
(lp2383
V\u74e6
aV\u4f64
asVwa2
p2384
(lp2385
V\u5a03
asVwa1
p2386
(lp2387
V\u6316
aV\u54c7
aV\u86d9
aV\u6d3c
aV\u5a32
aV\u7a75
aV\u55d7
asVpou4
p2388
(lp2389
V\u5485
asV\u8b03
(lp2390
V\u8b03
asVkuang1
p2391
(lp2392
V\u5321
aV\u7b50
aV\u8bd3
aV\u54d0
aV\u7844
asVdie2
p2393
(lp2394
V\u789f
aV\u8776
aV\u8c0d
aV\u53e0
aV\u8fed
aV\u558b
aV\u7252
aV\u9cbd
aV\u621c
aV\u581e
aV\u6315
aV\u957b
asVtiao3
p2395
(lp2396
V\u7a95
asVpang3
p2397
(lp2398
V\u55d9
aV\u802a
asVtiao1
p2399
(lp2400
V\u6311
aV\u4f7b
asVjiang4
p2401
(lp2402
V\u964d
aV\u9171
aV\u5320
aV\u7edb
aV\u729f
aV\u7ce8
aV\u5f36
asV\u9b79
(lp2403
V\u9b79
asV\u510f
(lp2404
V\u510f
asVrou3
p2405
(lp2406
V\u7cc5
asVzhen4
p2407
(lp2408
V\u9707
aV\u9547
aV\u632f
aV\u9635
aV\u5733
aV\u8d48
aV\u6715
aV\u9e29
aV\u93ae
aV\u630b
aV\u6552
aV\u681a
asVdun3
p2409
(lp2410
V\u8db8
aV\u76f9
asVyang2
p2411
(lp2412
V\u6837
aV\u9633
aV\u6d0b
aV\u626c
aV\u7f8a
aV\u6768
aV\u75a1
aV\u70ca
aV\u4f6f
aV\u5f89
aV\u739a
aV\u7080
aV\u9626
aV\u9c11
aV\u73dc
asVyang3
p2413
(lp2414
V\u517b
aV\u6c27
aV\u4ef0
aV\u75d2
aV\u6c31
aV\u8746
asVyang4
p2415
(lp2416
V\u6059
aV\u6f3e
aV\u600f
aV\u69d8
asVzhen1
p2417
(lp2418
V\u771f
aV\u9488
aV\u73cd
aV\u4fa6
aV\u8d1e
aV\u7504
aV\u7bb4
aV\u7827
aV\u659f
aV\u81fb
aV\u7f1c
aV\u699b
aV\u796f
aV\u6862
aV\u84c1
aV\u6a3c
aV\u80d7
aV\u6eb1
asV\u5a98
(lp2419
V\u5a98
asVshang3
p2420
(lp2421
V\u8d4f
aV\u664c
asVsang3
p2422
(lp2423
V\u55d3
aV\u6421
aV\u98a1
asVshang1
p2424
(lp2425
V\u5546
aV\u4f24
aV\u6b87
aV\u71b5
aV\u89de
aV\u5892
aV\u850f
asVti3
p2426
(lp2427
V\u4f53
asVjun4
p2428
(lp2429
V\u4fca
aV\u5cfb
aV\u90e1
aV\u7ae3
aV\u9a8f
aV\u6d5a
aV\u96bd
aV\u5441
aV\u73fa
aV\u6343
aV\u9982
asVshang4
p2430
(lp2431
V\u4e0a
aV\u5c1a
aV\u59e0
asVqun1
p2432
(lp2433
V\u9021
aV\u56f7
aV\u590b
asVtun2
p2434
(lp2435
V\u5c6f
aV\u8c5a
aV\u81c0
aV\u7096
aV\u9968
aV\u9c80
aV\u9715
aV\u8ed8
asVqun3
p2436
(lp2437
V\u877d
asV\u81a4
(lp2438
V\u81a4
asV\u6803
(lp2439
V\u6803
asVna3
p2440
(lp2441
V\u54ea
aV\u96eb
asVguai3
p2442
(lp2443
V\u62d0
asVning4
p2444
(lp2445
V\u6cde
aV\u4fab
aV\u4f5e
asVguai1
p2446
(lp2447
V\u4e56
asVkai4
p2448
(lp2449
V\u5ffe
aV\u70d7
asVkai3
p2450
(lp2451
V\u51ef
aV\u6168
aV\u6977
aV\u607a
aV\u94e0
aV\u9534
aV\u5605
aV\u8f06
aV\u5240
aV\u98bd
asVlei3
p2452
(lp2453
V\u857e
aV\u5792
aV\u78ca
aV\u5121
aV\u8b84
aV\u8bd4
aV\u7623
aV\u6ad0
aV\u9478
asVrong4
p2454
(lp2455
V\u9d27
asVguai4
p2456
(lp2457
V\u602a
aV\u53cf
asV\u57b0
(lp2458
V\u57b0
asVqi4
p2459
(lp2460
V\u6c14
aV\u5668
aV\u6c7d
aV\u5f03
aV\u8fc4
aV\u5951
aV\u7f09
aV\u6ce3
aV\u61a9
aV\u780c
aV\u847a
aV\u8bab
aV\u6c17
aV\u789b
aV\u6c54
aV\u5650
aV\u5fd4
aV\u9f1c
aV\u8aff
asVzha3
p2461
(lp2462
V\u7728
aV\u9c8a
asVlan3
p2463
(lp2464
V\u89c8
aV\u6984
aV\u61d2
aV\u63fd
aV\u89a7
aV\u6f24
asV\u71b4
(lp2465
V\u71b4
asV\u9eb6
(lp2466
V\u9eb6
asVsong4
p2467
(lp2468
V\u9001
aV\u8bbc
aV\u5b8b
aV\u9882
aV\u8bf5
asVpu3
p2469
(lp2470
V\u666e
aV\u57d4
aV\u8c31
aV\u6d66
aV\u5703
aV\u6ea5
aV\u9568
aV\u5724
asVtian3
p2471
(lp2472
V\u8214
aV\u8146
aV\u6b84
aV\u5fdd
aV\u9518
aV\u932a
aV\u7753
asVsong3
p2473
(lp2474
V\u8038
aV\u609a
aV\u6002
asVxu4
p2475
(lp2476
V\u7eed
aV\u5e8f
aV\u7eea
aV\u84c4
aV\u53d9
aV\u6064
aV\u9157
aV\u7d6e
aV\u65ed
aV\u5a7f
aV\u65ee
aV\u65ef
aV\u654d
aV\u9b46
aV\u987c
aV\u69d2
asVgui4
p2477
(lp2478
V\u8d35
aV\u67dc
aV\u6842
aV\u532e
aV\u8dea
aV\u523d
aV\u7094
aV\u8958
aV\u97bc
aV\u523f
asVkun3
p2479
(lp2480
V\u6346
aV\u58f8
aV\u9603
asVgui3
p2481
(lp2482
V\u9b3c
aV\u8f68
aV\u8be1
aV\u6677
aV\u5e8b
aV\u7678
aV\u7c0b
aV\u5b84
aV\u4f79
aV\u5326
aV\u796a
aV\u6c3f
asV\u7e4c
(lp2483
V\u7e4c
asV\u98ca
(lp2484
V\u98ca
asVteng2
p2485
(lp2486
V\u75bc
aV\u817e
aV\u85e4
aV\u6ed5
aV\u8a8a
aV\u9086
aV\u99e6
aV\u7c50
aV\u7c58
asVa1
p2487
(lp2488
V\u963f
aV\u5416
aV\u9515
asVcang2
p2489
(lp2490
V\u85cf
asVcai4
p2491
(lp2492
V\u83dc
aV\u8521
asVhuang2
p2493
(lp2494
V\u9ec4
aV\u7687
aV\u714c
aV\u51f0
aV\u7c27
aV\u60f6
aV\u78fa
aV\u9051
aV\u6f62
aV\u8757
aV\u5fa8
aV\u749c
aV\u968d
aV\u953d
aV\u9cc7
aV\u824e
asVcha4
p2495
(lp2496
V\u5dee
aV\u5239
aV\u5c94
aV\u8be7
aV\u8869
aV\u59f9
aV\u6c4a
asVpa1
p2497
(lp2498
V\u8db4
aV\u556a
aV\u8469
aV\u8225
aV\u8686
asVbao2
p2499
(lp2500
V\u96f9
aV\u5ad1
asVpi1
p2501
(lp2502
V\u6279
aV\u62ab
aV\u5288
aV\u9739
aV\u576f
aV\u567c
aV\u4e15
aV\u7812
aV\u94cd
aV\u65c7
aV\u82e4
aV\u62b7
aV\u79db
asVceng4
p2503
(lp2504
V\u8e6d
asVpi3
p2505
(lp2506
V\u5339
aV\u7656
aV\u75de
aV\u4ef3
aV\u56ad
asVceng2
p2507
(lp2508
V\u66fe
aV\u5c42
aV\u7af2
asVshi4
p2509
(lp2510
V\u662f
aV\u4e8b
aV\u5e02
aV\u793a
aV\u58eb
aV\u4e16
aV\u5f0f
aV\u89c6
aV\u8bd5
aV\u8bc6
aV\u9002
aV\u5ba4
aV\u52bf
aV\u91ca
aV\u6c0f
aV\u9970
aV\u8a93
aV\u901d
aV\u4ed5
aV\u4f8d
aV\u55dc
aV\u566c
aV\u62ed
aV\u67ff
aV\u6043
aV\u5f11
aV\u87ab
aV\u8210
aV\u8f7c
aV\u94c8
aV\u8c25
aV\u9cc0
aV\u596d
aV\u623a
aV\u7b6e
aV\u683b
aV\u91c8
aV\u793b
aV\u53d3
aV\u5fd5
asVxu1
p2511
(lp2512
V\u9700
aV\u987b
aV\u865a
aV\u5401
aV\u589f
aV\u5618
aV\u80e5
aV\u620c
aV\u5b2c
aV\u6948
aV\u7a30
aV\u6b28
asVzhui1
p2513
(lp2514
V\u8ffd
aV\u690e
aV\u9525
aV\u96b9
aV\u9a93
aV\u9d7b
asVgai1
p2515
(lp2516
V\u8be5
aV\u8d45
aV\u59df
aV\u5793
aV\u4f85
asVyan4
p2517
(lp2518
V\u9a8c
aV\u538c
aV\u5bb4
aV\u8273
aV\u71d5
aV\u7130
aV\u5f66
aV\u96c1
aV\u5830
aV\u8c1a
aV\u8d5d
aV\u5501
aV\u664f
aV\u781a
aV\u95eb
aV\u990d
aV\u6079
aV\u7131
aV\u9a34
aV\u6edf
aV\u50bf
aV\u5a69
aV\u8276
aV\u66d5
aV\u917d
asVcai1
p2519
(lp2520
V\u731c
asVxin4
p2521
(lp2522
V\u4fe1
aV\u8845
aV\u56df
aV\u7161
aV\u8ed0
asVshun3
p2523
(lp2524
V\u542e
aV\u63d7
asVchuang1
p2525
(lp2526
V\u7a97
aV\u75ae
asV\u58ea
(lp2527
V\u58ea
asVjiu3
p2528
(lp2529
V\u4e5d
aV\u9152
aV\u4e45
aV\u7078
aV\u7396
aV\u8d73
aV\u97ed
asV\u516f
(lp2530
V\u516f
asVjiao1
p2531
(lp2532
V\u4ea4
aV\u7126
aV\u90ca
aV\u9a84
aV\u7901
aV\u6912
aV\u8549
aV\u5a07
aV\u6d47
aV\u8de4
aV\u86df
aV\u59e3
aV\u9e6a
aV\u50ec
asVsa1
p2533
(lp2534
V\u6492
aV\u4ee8
asVrang3
p2535
(lp2536
V\u58e4
aV\u56b7
asVa5
p2537
(lp2538
V\u554a
asV\u74f2
(lp2539
V\u74f2
asVti4
p2540
(lp2541
V\u66ff
aV\u60d5
aV\u6d95
aV\u5243
aV\u5c49
aV\u9511
aV\u568f
aV\u501c
aV\u608c
aV\u9016
aV\u4fe4
aV\u6b52
aV\u8fcf
aV\u9037
aV\u9b04
asVna4
p2542
(lp2543
V\u90a3
aV\u7eb3
aV\u94a0
aV\u637a
aV\u8872
aV\u59a0
asV\u8279
(lp2544
V\u8279
asVniao4
p2545
(lp2546
V\u5c3f
aV\u8132
asVyo5
p2547
(lp2548
V\u54df
asVzan1
p2549
(lp2550
V\u7c2a
aV\u5142
asVlou2
p2551
(lp2552
V\u697c
aV\u5a04
aV\u9ac5
aV\u877c
asVyo1
p2553
(lp2554
V\u5537
asVzan2
p2555
(lp2556
V\u54b1
aV\u7ccc
as.