(lp0
(lp1
F0.2888888888888889
aF0.9789473684210527
aF0.12967032967032968
aF0.0634920634920635
aF0.7157894736842106
aF0.39841269841269844
aF0.4666666666666667
aF0.46285714285714286
aF0.13794369645042842
aF0.1411764705882353
aF0.9448275862068967
aF0.16178107606679037
aF0.3261261261261261
aF0.9714285714285715
aF0.9607142857142857
aF0.407373271889401
aF0.24117647058823533
aF0.18790697674418605
aF0.11176470588235295
aF0.1105263157894737
aF0.27633262260127933
aF0.3396825396825397
aF0.2893081761006289
aF0.22666666666666668
aF0.2626623376623377
aF0.6101648351648352
aF0.7704347826086957
aF0.07393939393939394
aF0.0890909090909091
aF0.08027444253859349
aF0.07482993197278912
aF0.11176470588235295
aF0.1291005291005291
aF0.4666666666666667
aF0.24796905222437143
aF0.15
aF0.06339285714285715
aF0.24242424242424243
aF0.6556005398110661
aF0.29523809523809524
aF0.1650623885918004
aF0.19751861042183627
aF0.37869565217391304
aF0.12412177985948479
aF0.0890909090909091
aF0.08851063829787234
aF0.14680573663624513
aF0.09914529914529915
aF0.08123791102514508
aF0.1838095238095238
aF0.1786046511627907
aF0.25568181818181823
aF0.17304347826086958
aF0.7610389610389612
aF0.6751322751322751
aF0.9583333333333335
aF0.26857142857142857
aF0.3333333333333333
aF0.528110599078341
aF0.9727272727272728
aF0.9714285714285716
aF0.4666666666666667
aF0.08930232558139535
aF0.641025641025641
aF0.5163636363636365
aF0.14814814814814814
aF0.9714285714285715
aF0.20854700854700856
aF0.7323943661971832
aF0.8045454545454546
aF0.3965811965811966
aF0.14871794871794872
aF0.1506172839506173
aF0.18
aF0.9733333333333334
aF0.7375
aF0.31140350877192985
aF0.25
aF0.14814814814814814
aF0.13360323886639677
aF0.2619047619047619
aF0.805952380952381
aF0.11176470588235295
aF0.5383333333333334
aF0.17230769230769233
aF0.3547826086956522
aF0.11
aF0.07380952380952381
aF0.12807881773399016
aF0.2070460704607046
aF0.06370023419203748
aF0.0996996996996997
aF0.47857142857142865
aF0.40439560439560446
aF0.9714285714285715
aF0.5973333333333333
aF0.14871794871794872
aF0.31228070175438594
aF0.7257971014492755
aF0.5549707602339181
aF0.9500000000000002
aF0.39142857142857146
aF0.2691666666666667
aF0.2977777777777778
aF0.18433179723502308
aF0.0683181225554107
aF0.438927738927739
aF0.2603921568627451
aF0.5444444444444444
aF0.11956989247311829
aF0.9714285714285715
aF0.1773913043478261
aF0.6154929577464789
aF0.08869565217391305
aF0.37714285714285717
aF0.2582010582010582
aF0.18
aF0.6900000000000001
aF0.17904761904761907
aF0.07380952380952381
aF0.9714285714285715
aF0.21321961620469088
aF0.13762237762237764
aF0.22222222222222224
aF0.2235294117647059
aF0.0986449864498645
aF0.05866666666666667
aF0.27705627705627706
aF0.17702127659574468
aF0.4050215208034434
aF0.4758620689655173
aF0.6235294117647059
aF0.2628571428571429
aF0.0986449864498645
aF0.8875816993464053
aF0.2742857142857143
aF0.3594594594594595
aF0.23992094861660085
aF0.45185185185185195
aF0.14736842105263157
aF0.33666666666666667
aF0.1471264367816092
aF0.704186046511628
aF0.39579831932773113
aF0.7333333333333334
aF0.11142857142857143
aF0.45454545454545464
aF0.4545454545454546
aF0.11142857142857143
aF0.3025641025641026
aF0.5571428571428572
aF0.2535714285714286
aF0.2177777777777778
aF0.16145454545454546
aF0.16898395721925136
aF0.08930232558139535
aF0.3866666666666667
aF0.7151515151515152
aF0.4714285714285714
aF0.26553191489361705
aF0.11176470588235295
aF0.6642857142857143
aF0.9161581920903955
aF0.12571428571428572
aF0.41464646464646465
aF0.2210526315789474
aF0.6626016260162603
aF0.08851063829787234
aF0.12807881773399016
aF0.08041958041958043
aF0.16945454545454547
aF0.5104761904761905
aF0.9658536585365854
aF0.712820512820513
aF0.9411764705882354
aF0.4864864864864865
aF0.17600000000000005
aF0.4571428571428572
aF0.15333333333333332
aF0.22666666666666668
aF0.8675675675675676
aF0.2638655462184874
aF0.4640000000000001
aF0.5840000000000001
aF0.14088050314465408
aF0.9806451612903226
aF0.4705882352941177
aF0.9714285714285715
aF0.1650623885918004
aF0.9714285714285715
aF0.21364764267990077
aF0.4031746031746032
aF0.17142857142857146
aF0.45925925925925937
aF0.9333333333333335
aF0.07333333333333333
aF0.17904761904761907
aF0.11549019607843138
aF0.31494252873563217
aF0.17904761904761907
aF0.5847619047619048
aF0.15782312925170067
aF0.9515151515151515
aF0.968421052631579
aF0.570909090909091
aF0.3
aF0.25538461538461543
aF0.9857142857142859
aF0.11142857142857143
aF0.22745098039215692
aF0.18
aF0.28615384615384615
aF0.15072463768115943
aF0.8128787878787879
aF0.4446406052963431
aF0.11142857142857143
aF0.9714285714285715
aF0.9849056603773587
aF0.2235294117647059
aF0.7450980392156863
aF0.11212121212121212
aF0.9719298245614036
aF0.4812615955473099
aF0.5979797979797981
aF0.2924731182795699
aF0.09888888888888889
aF0.11081081081081082
aF0.9868852459016394
aF0.5760000000000001
aF0.4733333333333334
aF0.23396226415094343
aF0.5424860853432283
aF0.9750000000000001
aF0.5076023391812865
aF0.4075630252100841
aF0.7157894736842106
aF0.4254784688995215
aF0.2934265734265734
aF0.21084489281210597
aF0.3675675675675676
aF0.1831884057971015
aF0.3047619047619048
aF0.27673469387755106
aF0.09841269841269842
aF0.11176470588235295
aF0.33876319758672707
aF0.14341590612777055
aF0.9750000000000001
aF0.18
aF0.37989417989417995
aF0.9727272727272728
aF0.7209132420091324
aF0.3925925925925926
aF0.17904761904761907
aF0.3358070500927644
aF0.9692307692307693
aF0.2417112299465241
aF0.18105263157894738
aF0.2414746543778802
aF0.77
aF0.09914529914529915
aF0.07368421052631578
aF0.14871794871794872
aF0.13687002652519895
aF0.5128654970760234
aF0.4597968069666184
aF0.7058823529411765
aF0.22051282051282053
aF0.29652173913043484
aF0.9787234042553192
aF0.9600000000000002
aF0.27181818181818185
aF0.23859649122807022
aF0.9600000000000001
aF0.24318181818181822
aF0.33527851458885943
aF0.12807881773399016
aF0.7058823529411765
aF0.10031746031746032
aF0.3866071428571429
aF0.3450757575757576
aF0.4625
aF0.0986449864498645
aF0.8826939471440751
aF0.30156774916013446
aF0.17777777777777778
aF0.8136546184738955
aF0.21025641025641026
aF0.9692307692307693
aF0.7490909090909091
aF0.9555555555555556
aF0.12605042016806722
aF0.7157894736842106
aF0.1781818181818182
aF0.34285714285714286
aF0.0632967032967033
aF0.19912087912087914
aF0.15
aF0.4031746031746032
aF0.2821538461538462
aF0.1786046511627907
aF0.1781818181818182
aF0.3721739130434783
aF0.24074074074074078
aF0.9714285714285715
aF0.14933333333333332
aF0.4789473684210527
aF0.38528138528138534
aF0.18105263157894738
aF0.0805704099821747
aF0.9444444444444445
aF0.16000000000000003
aF0.11176470588235295
aF0.09758454106280194
aF0.15789473684210525
aF0.22962962962962968
aF0.14761904761904762
aF0.6533333333333333
aF0.08072727272727273
aF0.5760000000000001
aF0.5975609756097561
aF0.3094497607655503
aF0.8012820512820512
aF0.11
aF0.1487714072970961
aF0.3363636363636364
aF0.2670329670329671
aF0.7157894736842106
aF0.0986449864498645
aF0.8210084033613447
aF0.9714285714285715
aF0.34090909090909094
aF0.29205548549810845
aF0.968421052631579
aF0.7530434782608696
aF0.21142857142857144
aF0.5957894736842106
aF0.9116071428571428
aF0.18105263157894738
aF0.46666666666666673
aF0.3813186813186814
aF0.21081081081081082
aF0.9777777777777779
aF0.33769230769230774
aF0.0805704099821747
aF0.29205548549810845
aF0.2561576354679803
aF0.6022988505747127
aF0.22666666666666668
aF0.41897018970189703
aF0.09351285189718482
aF0.0805704099821747
aF0.48888888888888893
aF0.36782608695652175
aF0.26649282920469364
aF0.14046822742474918
aF0.4742857142857143
aF0.08851063829787234
aF0.540952380952381
aF0.23589743589743592
aF0.4720000000000001
aF0.36444444444444446
aF0.7307692307692307
aF0.8797858099062918
aF0.2952380952380953
aF0.1781818181818182
aF0.9714285714285715
aF0.375
aF0.7743589743589743
aF0.08888888888888889
aF0.09914529914529915
aF0.852532833020638
aF0.22941176470588237
aF0.22500000000000003
aF0.48000000000000004
aF0.5360000000000001
aF0.30303030303030304
aF0.9024615384615386
aF0.9076923076923078
aF0.538562091503268
aF0.6293333333333333
aF0.4285714285714286
aF0.14871794871794872
aF0.14933333333333332
aF0.25117117117117116
aF0.31666666666666665
aF0.08013468013468014
aF0.3654545454545455
aF0.13246753246753248
aF0.19232409381663115
aF0.9692307692307693
aF0.1523809523809524
aF0.77
aF0.9714285714285715
aF0.6641025641025641
aF0.9714285714285716
aF0.08041958041958043
aF0.7222222222222223
aF0.8792792792792794
aF0.2105263157894737
aF0.9714285714285715
aF0.6333333333333333
aF0.9636363636363636
aF0.9714285714285715
aF0.776
aF0.92
aF0.9714285714285716
aF0.6333333333333333
aF0.9714285714285715
aF0.16
aF0.22
aF0.9714285714285715
aF0.9700000000000001
aF0.20505050505050507
aF0.45000000000000007
aF0.9680000000000001
aF0.225
aF0.9583333333333334
aF0.4272017837235229
aF0.4571428571428572
aF0.9714285714285715
aF0.3025641025641026
aF0.7047619047619048
aF0.1781818181818182
aF0.2210526315789474
aF0.36347826086956525
aF0.8294642857142859
aF0.2660869565217392
aF0.12718894009216591
aF0.40282148670645684
aF0.5508928571428572
aF0.19638242894056848
aF0.270995670995671
aF0.4736842105263158
aF0.11081081081081082
aF0.22285714285714286
aF0.2235294117647059
aF0.2021680216802168
aF0.15268817204301074
aF0.23104395604395608
aF0.23
aF0.6133333333333335
aF0.5577777777777779
aF0.4777777777777778
aF0.17904761904761907
aF0.7722222222222223
aF0.11826086956521739
aF0.2977777777777778
aF0.8114942528735631
aF0.10952380952380952
aF0.1742857142857143
aF0.17400000000000002
aF0.14274905422446407
aF0.7659259259259259
aF0.9830508474576272
aF0.8607142857142859
aF0.16579352850539295
aF0.11111111111111112
aF0.11111111111111112
aF0.2761538461538462
aF0.25052631578947365
aF0.17904761904761907
aF0.12807881773399016
aF0.11025641025641027
aF0.176
aF0.22816901408450704
aF0.1359801488833747
aF0.14274905422446407
aF0.41333333333333333
aF0.14871794871794872
aF0.18681318681318684
aF0.16145454545454546
aF0.22222222222222224
aF0.17402597402597406
aF0.1781818181818182
aF0.0683181225554107
aF0.27478260869565224
aF0.9600000000000001
aF0.7719298245614035
aF0.9714285714285715
aF0.1285714285714286
aF0.18222222222222223
aF0.8624624624624625
aF0.4705882352941177
aF0.1993993993993994
aF0.1781818181818182
aF0.08888888888888889
aF0.08106060606060607
aF0.21364764267990077
aF0.9600000000000002
aF0.19137254901960785
aF0.7946666666666669
aF0.1773913043478261
aF0.3741071428571429
aF0.37396825396825406
aF0.14933333333333332
aF0.27373271889400924
aF0.42500000000000004
aF0.20093676814988293
aF0.08833333333333333
aF0.6641711229946525
aF0.06820512820512821
aF0.14088050314465408
aF0.18
aF0.1653846153846154
aF0.7157894736842106
aF0.22666666666666668
aF0.2566964285714286
aF0.29430199430199433
aF0.17904761904761907
aF0.9714285714285715
aF0.1267857142857143
aF0.5171428571428572
aF0.27384615384615385
aF0.14871794871794872
aF0.088
aF0.22631578947368422
aF0.4702702702702703
aF0.08041958041958043
aF0.07344632768361582
aF0.0890909090909091
aF0.08072727272727273
aF0.5885057471264368
aF0.08869565217391305
aF0.9714285714285715
aF0.41871921182266014
aF0.19777777777777777
aF0.09941520467836258
aF0.1267857142857143
aF0.3094497607655503
aF0.0678876678876679
aF0.1105263157894737
aF0.4148148148148149
aF0.14814814814814814
aF0.5883333333333334
aF0.08027444253859349
aF0.12605042016806722
aF0.22372881355932206
aF0.47111111111111115
aF0.15721925133689843
aF0.13852813852813853
aF0.11111111111111112
aF0.4075630252100841
aF0.16468531468531472
aF0.06820512820512821
aF0.14814814814814814
aF0.9200000000000002
aF0.17842105263157898
aF0.9714285714285715
aF0.14871794871794872
aF0.8092436974789917
aF0.3825
aF0.6385964912280703
aF0.11762557077625571
aF0.5276190476190477
aF0.1718696397941681
aF0.9500000000000002
aF0.18222222222222223
aF0.8552852014359793
aF0.7000000000000001
aF0.47000000000000003
aF0.46875
aF0.4053571428571429
aF0.9714285714285715
aF0.18040816326530612
aF0.9384615384615387
aF0.15555555555555556
aF0.9529411764705883
aF0.2681278538812786
aF0.9571428571428573
aF0.9714285714285715
aF0.9714285714285715
aF0.15072463768115943
aF0.1267857142857143
aF0.21461538461538465
aF0.23243243243243245
aF0.23783783783783785
aF0.15333333333333332
aF0.7407407407407407
aF0.7795454545454545
aF0.14871794871794872
aF0.9714285714285715
aF0.1611408199643494
aF0.784019975031211
aF0.3454545454545455
aF0.5387057387057388
aF0.33346228239845266
aF0.5752380952380953
aF0.42500000000000004
aF0.08930232558139535
aF0.9714285714285715
aF0.5756521739130436
aF0.3881818181818182
aF0.9714285714285715
aF0.8390476190476192
aF0.41871921182266014
aF0.20568475452196383
aF0.225
aF0.7905376344086021
aF0.22424242424242424
aF0.2785714285714286
aF0.6125
aF0.9714285714285715
aF0.2733333333333334
aF0.9714285714285715
aF0.055128205128205134
aF0.11176470588235295
aF0.07344632768361582
aF0.9454545454545457
aF0.37454545454545457
aF0.11176470588235295
aF0.11176470588235295
aF0.14933333333333332
aF0.20961538461538465
aF0.6176190476190477
aF0.2785714285714286
aF0.9714285714285715
aF0.1406060606060606
aF0.6256410256410256
aF0.32937062937062944
aF0.21714285714285717
aF0.3121212121212122
aF0.12605042016806722
aF0.3037037037037037
aF0.45600000000000007
aF0.3577777777777778
aF0.13428571428571429
aF0.1781818181818182
aF0.455
aF0.4875000000000001
aF0.36444444444444446
aF0.317948717948718
aF0.15
aF0.11111111111111112
aF0.8092436974789917
aF0.5282282282282282
aF0.6333333333333333
aF0.14814814814814814
aF0.17250000000000001
aF0.22222222222222224
aF0.17923076923076925
aF0.5638095238095239
aF0.5192118226600986
aF0.496
aF0.09888888888888889
aF0.20341880341880342
aF0.41558441558441567
aF0.476923076923077
aF0.12807881773399016
aF0.406060606060606
aF0.3913419913419914
aF0.08106060606060607
aF0.36221198156682033
aF0.11142857142857143
aF0.12761904761904763
aF0.36866359447004615
aF0.37
aF0.15333333333333332
aF0.5569230769230771
aF0.11604166666666668
aF0.396911196911197
aF0.14933333333333332
aF0.19955357142857147
aF0.08013468013468014
aF0.1103896103896104
aF0.30952380952380953
aF0.0986449864498645
aF0.30144927536231886
aF0.31666666666666665
aF0.7222222222222223
aF0.8923076923076925
aF0.4411873840445269
aF0.18285714285714288
aF0.5702702702702702
aF0.22222222222222224
aF0.225
aF0.8466666666666667
aF0.10952380952380952
aF0.15
aF0.09841269841269842
aF0.5254545454545455
aF0.5844155844155845
aF0.22222222222222224
aF0.28
aF0.5685714285714286
aF0.7733333333333333
aF0.5
aF0.3462282398452612
aF0.4365079365079365
aF0.9714285714285715
aF0.33360824742268047
aF0.33817330210772834
aF0.3166666666666667
aF0.23508771929824565
aF0.09203206034889204
aF0.29776674937965264
aF0.2660714285714286
aF0.25512437810945277
aF0.30329670329670333
aF0.250834879406308
aF0.12761904761904763
aF0.7685636856368564
aF0.43109243697479
aF0.2
aF0.1023368251410153
aF0.1773913043478261
aF0.15072463768115943
aF0.11081081081081082
aF0.5594444444444444
aF0.18666666666666668
aF0.5973333333333333
aF0.0805704099821747
aF0.6945054945054945
aF0.18
aF0.5941176470588235
aF0.9428571428571428
aF0.7272727272727274
aF0.9837837837837838
aF0.32500000000000007
aF0.6381289865343729
aF0.41558441558441567
aF0.7396226415094339
aF0.2456327985739751
aF0.5345454545454547
aF0.7587808417997097
aF0.9636363636363636
aF0.9842105263157895
aF0.9680000000000001
aF0.11578947368421054
aF0.16000000000000003
aF0.894074074074074
aF0.2235294117647059
aF0.38245614035087716
aF0.3888888888888889
aF0.08833333333333333
aF0.43619047619047624
aF0.9809523809523811
aF0.47407407407407415
aF0.1452991452991453
aF0.5590296495956874
aF0.8323809523809524
aF0.0735632183908046
aF0.2590799031476998
aF0.08869565217391305
aF0.8477192982456141
aF0.18
aF0.15119047619047618
aF0.9714285714285715
aF0.5840000000000001
aF0.12807881773399016
aF0.5895238095238097
aF0.8003787878787879
aF0.7789789789789789
aF0.1781818181818182
aF0.965217391304348
aF0.36210526315789476
aF0.08851063829787234
aF0.39802955665024636
aF0.16212121212121214
aF0.5820512820512821
aF0.9680000000000001
aF0.18105263157894738
aF0.5283783783783784
aF0.17904761904761907
aF0.27647058823529413
aF0.16145454545454546
aF0.2814814814814815
aF0.17791044776119405
aF0.12718894009216591
aF0.14814814814814814
aF0.19181818181818183
aF0.41760563380281696
aF0.26857142857142857
aF0.30303030303030304
aF0.41558441558441567
aF0.3571428571428572
aF0.36849315068493155
aF0.47407407407407415
aF0.3876923076923078
aF0.0678876678876679
aF0.35809523809523813
aF0.22666666666666668
aF0.0632967032967033
aF0.20621118012422363
aF0.14901960784313725
aF0.1967806841046278
aF0.20935672514619885
aF0.4753623188405797
aF0.3159420289855073
aF0.3173708920187793
aF0.08816326530612245
aF0.6134328358208956
aF0.3578947368421053
aF0.20000000000000004
aF0.4798418972332017
aF0.6761904761904762
aF0.5238095238095238
aF0.6000000000000001
aF0.11025641025641027
aF0.39195402298850573
aF0.30303030303030304
aF0.3121212121212122
aF0.14933333333333332
aF0.1264069264069264
aF0.2048048048048048
aF0.22599469496021224
aF0.28735632183908044
aF0.15733333333333333
aF0.11111111111111112
aF0.37333333333333335
aF0.1267857142857143
aF0.40677361853832444
aF0.3656633221850613
aF0.22666666666666668
aF0.17224489795918368
aF0.29000000000000004
aF0.4533333333333334
aF0.1773913043478261
aF0.7866209262435677
aF0.30144927536231886
aF0.24371373307543526
aF0.22647058823529412
aF0.7530434782608696
aF0.15833333333333333
aF0.18686868686868688
aF0.9157894736842106
aF0.16369863013698632
aF0.24568627450980393
aF0.6244306418219463
aF0.24000000000000002
aF0.11025641025641027
aF0.3904761904761905
aF0.9714285714285716
aF0.9770491803278689
aF0.45904761904761904
aF0.5000000000000001
aF0.30569105691056914
aF0.2412587412587413
aF0.8144927536231884
aF0.1781818181818182
aF0.2104218362282879
aF0.3294117647058824
aF0.14933333333333332
aF0.2087533156498674
aF0.17960784313725492
aF0.5171717171717172
aF0.6333333333333333
aF0.09739952718676123
aF0.11081081081081082
aF0.18641509433962264
aF0.7157894736842106
aF0.3230519480519481
aF0.18142857142857144
aF0.30303030303030304
aF0.9666666666666667
aF0.20444444444444446
aF0.22222222222222224
aF0.09888888888888889
aF0.1753846153846154
aF0.21360089186176145
aF0.05199709513435004
aF0.24510489510489514
aF0.6907407407407408
aF0.20568475452196383
aF0.2285714285714286
aF0.2816377171215881
aF0.1773913043478261
aF0.8771428571428572
aF0.7878260869565218
aF0.13015873015873017
aF0.09888888888888889
aF0.3111111111111111
aF0.37454545454545457
aF0.4920000000000001
aF0.18105263157894738
aF0.09697648376259799
aF0.34242424242424246
aF0.2015873015873016
aF0.16083916083916086
aF0.11690140845070424
aF0.3047619047619048
aF0.29393939393939394
aF0.6074074074074074
aF0.30526315789473685
aF0.5790219702338767
aF0.3038759689922481
aF0.3486486486486487
aF0.18105263157894738
aF0.4577777777777778
aF0.508080808080808
aF0.1471264367816092
aF0.46666666666666673
aF0.35285359801488836
aF0.8261594580510683
aF0.3238095238095238
aF0.9783132530120482
aF0.09819121447028424
aF0.21539578794480754
aF0.176
aF0.2235294117647059
aF0.9714285714285715
aF0.3212121212121212
aF0.7487940630797775
aF0.10840336134453782
aF0.3119496855345912
aF0.36705882352941177
aF0.08869565217391305
aF0.09841269841269842
aF0.35263157894736846
aF0.6952380952380953
aF0.5263736263736264
aF0.49629629629629635
aF0.11081081081081082
aF0.9545454545454547
aF0.5942857142857144
aF0.9714285714285715
aF0.6952380952380953
aF0.46896551724137936
aF0.41904761904761906
aF0.16178107606679037
aF0.23529411764705885
aF0.22666666666666668
aF0.1267857142857143
aF0.17904761904761907
aF0.34
aF0.7490909090909091
aF0.6555555555555556
aF0.45833333333333337
aF0.9797101449275363
aF0.5662337662337663
aF0.4566666666666668
aF0.36750000000000005
aF0.7109848484848486
aF0.9523809523809524
aF0.14761904761904762
aF0.9714285714285715
aF0.9714285714285715
aF0.6222222222222223
aF0.44224664224664234
aF0.13095238095238096
aF0.11142857142857143
aF0.46428571428571436
aF0.33529411764705885
aF0.2910958904109589
aF0.99
aF0.9875
aF0.14965986394557823
aF0.3473684210526316
aF0.3254901960784314
aF0.6160919540229886
aF0.2015873015873016
aF0.7274745605920444
aF0.2927536231884058
aF0.27265306122448985
aF0.7031991744066048
aF0.6514285714285715
aF0.8266666666666667
aF0.255917667238422
aF0.4720000000000001
aF0.16945454545454547
aF0.0683181225554107
aF0.18
aF0.4057142857142858
aF0.43282828282828284
aF0.4682926829268293
aF0.4816537467700258
aF0.22666666666666668
aF0.20000000000000004
aF0.40292397660818713
aF0.2763636363636364
aF0.11111111111111112
aF0.3497872340425532
aF0.18222222222222223
aF0.14666666666666667
aF0.12337662337662339
aF0.21714285714285717
aF0.197289972899729
aF0.5
aF0.2285714285714286
aF0.2178571428571429
aF0.22285714285714286
aF0.3439703153988869
aF0.6894736842105263
aF0.09819121447028424
aF0.11081081081081082
aF0.6736842105263159
aF0.17904761904761907
aF0.13687002652519895
aF0.12761904761904763
aF0.11025641025641027
aF0.2494669509594883
aF0.19
aF0.18
aF0.32150537634408605
aF0.6376811594202899
aF0.5765182186234818
aF0.2604895104895105
aF0.7966666666666666
aF0.4239766081871345
aF0.9636363636363638
aa(lp2
F0.16945454545454547
aF0.9870967741935486
aF0.6892307692307693
aF0.31523809523809526
aF0.48000000000000004
aF0.7880952380952381
aF0.8372294372294373
aF0.6048076923076924
aF0.14523809523809528
aF0.5925033467202142
aF0.7459459459459461
aF0.16898395721925136
aF0.8311711711711712
aF0.9642857142857144
aF0.8978365384615387
aF0.3913419913419914
aF0.6926406926406926
aF0.42154566744730687
aF0.22894056847545222
aF0.5894736842105264
aF0.3902127659574468
aF0.6206572769953052
aF0.40928689883913766
aF0.4842105263157895
aF0.27956043956043963
aF0.9648351648351648
aF0.770232558139535
aF0.6276190476190477
aF0.10317460317460318
aF0.0905844155844156
aF0.4950549450549451
aF0.0
aF0.13333333333333333
aF0.7026515151515152
aF0.38431372549019605
aF0.15
aF0.24825396825396828
aF0.5276679841897234
aF0.515954415954416
aF0.6244505494505495
aF0.4700000000000001
aF0.21318681318681323
aF0.3830434782608696
aF0.24616915422885574
aF0.2691666666666667
aF0.0
aF0.15482295482295483
aF0.5248627450980392
aF0.5118411000763942
aF0.19111111111111112
aF0.0986449864498645
aF0.3066666666666667
aF0.3701923076923077
aF0.7168253968253968
aF0.7573913043478261
aF0.9574468085106383
aF0.4346253229974161
aF0.5449472096530921
aF0.38521739130434784
aF0.9755102040816327
aF0.9588235294117647
aF0.7974468085106383
aF0.5057471264367817
aF0.9578947368421054
aF0.9482758620689656
aF0.6466666666666667
aF0.9724137931034483
aF0.7103030303030303
aF0.7770334928229665
aF0.8805555555555555
aF0.5887362637362638
aF0.37692307692307697
aF0.10911764705882353
aF0.6906882591093118
aF0.9760000000000001
aF0.8784313725490197
aF0.35263157894736846
aF0.6918918918918919
aF0.7878787878787878
aF0.46756756756756757
aF0.5316239316239316
aF0.7746153846153846
aF0.5222946544980444
aF0.7342222222222222
aF0.126984126984127
aF0.9052631578947369
aF0.11
aF0.0
aF0.385
aF0.49062500000000003
aF0.07509778357235986
aF0.11714285714285715
aF0.5571428571428572
aF0.6142857142857143
aF0.9533333333333335
aF0.31866666666666665
aF0.5398989898989899
aF0.47450980392156866
aF0.8068754774637128
aF0.7407207207207207
aF0.9538461538461539
aF0.6028571428571429
aF0.29454094292803973
aF0.5396825396825398
aF0.38135981665393437
aF0.4293650793650794
aF0.6968115942028985
aF0.7078947368421054
aF0.7905308464849355
aF0.24318407960199007
aF0.9612903225806453
aF0.6313131313131314
aF0.6814285714285715
aF0.10252525252525253
aF0.4877192982456141
aF0.16
aF0.4165413533834587
aF0.8032388663967611
aF0.617948717948718
aF0.21490683229813667
aF0.9727272727272728
aF0.45645021645021644
aF0.6800000000000002
aF0.4933333333333334
aF0.24615384615384617
aF0.3876923076923077
aF0.0
aF0.64
aF0.08851063829787234
aF0.38388888888888895
aF0.13852813852813853
aF0.6297297297297297
aF0.9236363636363637
aF0.5831649831649832
aF0.8315508021390375
aF0.42250000000000004
aF0.7421052631578948
aF0.5820823244552059
aF0.6748936170212767
aF0.30273224043715846
aF0.49
aF0.9258064516129033
aF0.9640000000000001
aF0.52788906009245
aF0.9555555555555556
aF0.0
aF0.6370370370370371
aF0.4023529411764706
aF0.12162162162162163
aF0.6548311076197958
aF0.6028103044496488
aF0.3666666666666667
aF0.5555555555555556
aF0.2491803278688525
aF0.3444805194805195
aF0.4671372549019608
aF0.4343373493975904
aF0.8355889724310777
aF0.553913043478261
aF0.6419817470664928
aF0.3575757575757576
aF0.7903030303030303
aF0.8733333333333334
aF0.5225705329153606
aF0.6333333333333334
aF0.48275862068965525
aF0.7913333333333333
aF0.4085287846481877
aF0.32820512820512826
aF0.2366666666666667
aF0.5184012066365008
aF0.5973924380704042
aF0.9666666666666667
aF0.5179138321995465
aF0.8357142857142859
aF0.686104218362283
aF0.13035087719298247
aF0.6487179487179487
aF0.23548387096774198
aF0.8190476190476191
aF0.90989010989011
aF0.15757575757575756
aF0.6045454545454545
aF0.6365591397849463
aF0.33333333333333337
aF0.9802816901408451
aF0.8783333333333333
aF0.9600000000000001
aF0.20081632653061224
aF0.9675675675675677
aF0.41835443037974684
aF0.7497835497835499
aF0.6838095238095239
aF0.725
aF0.9529411764705883
aF0.36000000000000004
aF0.56
aF0.4985294117647059
aF0.5777777777777778
aF0.8307692307692308
aF0.6250909090909091
aF0.0
aF0.9619047619047619
aF0.9800000000000001
aF0.7062626262626264
aF0.5948936170212767
aF0.30190476190476195
aF0.9600000000000002
aF0.7588075880758808
aF0.885057471264368
aF0.4337662337662338
aF0.4313978494623656
aF0.7026515151515152
aF0.9750000000000001
aF0.48484848484848486
aF0.5272727272727273
aF0.9647058823529413
aF0.9866666666666667
aF0.7763440860215054
aF0.668217054263566
aF0.3022222222222223
aF0.7298181818181819
aF0.5991341991341992
aF0.5935353535353536
aF0.24458333333333335
aF0.39487179487179486
aF0.4037037037037037
aF0.9885714285714287
aF0.7666666666666666
aF0.702857142857143
aF0.5977496483825598
aF0.6388758782201406
aF0.978125
aF0.49354838709677423
aF0.26857142857142857
aF0.6121951219512195
aF0.36568627450980395
aF0.495
aF0.20779220779220783
aF0.3710526315789474
aF0.23182503770739066
aF0.3880851063829787
aF0.4390720390720392
aF0.0
aF0.5015384615384616
aF0.14197802197802198
aF0.39666666666666667
aF0.9791666666666669
aF0.6027027027027028
aF0.6268292682926829
aF0.9803921568627452
aF0.749859943977591
aF0.47063063063063065
aF0.7350000000000001
aF0.4303030303030303
aF0.9642857142857144
aF0.4182194616977226
aF0.8128205128205128
aF0.6874785591766724
aF0.9333333333333333
aF0.38435897435897437
aF0.31196172248803833
aF0.3628571428571429
aF0.08013468013468014
aF0.4222222222222222
aF0.5374358974358975
aF0.8314285714285715
aF0.5514124293785312
aF0.6342857142857143
aF0.9157894736842106
aF0.8282051282051281
aF0.2848979591836735
aF0.3576923076923077
aF0.9555555555555556
aF0.24000000000000005
aF0.6409429280397023
aF0.3316666666666667
aF0.8000000000000002
aF0.33466666666666667
aF0.9379310344827587
aF0.5141025641025642
aF0.6650406504065042
aF0.24615384615384617
aF0.9220512820512821
aF0.2363636363636364
aF0.6138795986622074
aF0.8389057750759878
aF0.6360000000000001
aF0.9692307692307693
aF0.9481481481481482
aF0.9473684210526316
aF0.15208333333333335
aF0.7999999999999999
aF0.39272727272727276
aF0.26706467661691546
aF0.2107705053852527
aF0.2555868544600939
aF0.7495238095238096
aF0.4585365853658537
aF0.31167108753315653
aF0.8636363636363636
aF0.5514211886304909
aF0.577124183006536
aF0.5395522388059701
aF0.6190476190476191
aF0.9612903225806452
aF0.40085106382978725
aF0.6767605633802818
aF0.0
aF0.5915384615384617
aF0.9611111111111111
aF0.33347547974413644
aF0.5939470365699874
aF0.19703703703703704
aF0.15856079404466503
aF0.7338775510204082
aF0.49600000000000005
aF0.9124579124579124
aF0.0
aF0.72
aF0.8852813852813853
aF0.4198208286674132
aF0.8593070104754231
aF0.2966037735849057
aF0.28680851063829793
aF0.2873949579831933
aF0.4273504273504274
aF0.7345454545454545
aF0.7481081081081082
aF0.93
aF0.6190476190476191
aF0.8882716049382716
aF0.4761904761904763
aF0.9680000000000001
aF0.730909090909091
aF0.9157894736842106
aF0.8731060606060607
aF0.9215126050420168
aF0.7138181818181819
aF0.49687500000000007
aF0.7169590643274854
aF0.9368421052631579
aF0.9785714285714288
aF0.3407867494824016
aF0.5046153846153847
aF0.5388329979879276
aF0.6061007957559682
aF0.5952380952380952
aF0.9600000000000001
aF0.6304761904761905
aF0.28163558106169295
aF0.49851116625310177
aF0.6274031563845051
aF0.6950819672131148
aF0.3592074592074592
aF0.07860696517412935
aF0.6623655913978496
aF0.5975609756097561
aF0.6138888888888889
aF0.5474654377880185
aF0.5843478260869567
aF0.6190476190476191
aF0.7767718880285885
aF0.9246327683615819
aF0.6310077519379845
aF0.7168831168831169
aF0.9740740740740741
aF0.650909090909091
aF0.868939393939394
aF0.25172413793103454
aF0.8023809523809524
aF0.9521486643437863
aF0.634873949579832
aF0.6616279069767442
aF0.5837037037037038
aF0.7746153846153846
aF0.7333333333333334
aF0.8620833333333333
aF0.6100000000000001
aF0.7282051282051282
aF0.8135084427767355
aF0.7447619047619047
aF0.6256410256410257
aF0.5644444444444445
aF0.2326797385620915
aF0.5682539682539682
aF0.28
aF0.9680000000000002
aF0.5844155844155845
aF0.5889840881272951
aF0.9714285714285716
aF0.5800000000000001
aF0.9689655172413794
aF0.9791666666666667
aF0.7133640552995392
aF0.9789473684210527
aF0.5862838915470495
aF0.3333333333333333
aF0.9421652421652422
aF0.5035353535353535
aF0.9750000000000001
aF0.6619047619047619
aF0.9727272727272729
aF0.9461538461538462
aF0.8071428571428573
aF0.9700000000000001
aF0.9600000000000001
aF0.75
aF0.9571428571428573
aF0.0
aF0.9745454545454546
aF0.9529411764705884
aF0.9727272727272728
aF0.3825
aF0.9428571428571428
aF0.9485714285714286
aF0.0
aF0.9619047619047619
aF0.42140468227424754
aF0.2571428571428572
aF0.9756097560975611
aF0.7892957746478875
aF0.46956521739130436
aF0.4000000000000001
aF0.47857142857142865
aF0.6024390243902439
aF0.7483091787439614
aF0.7832137733142038
aF0.5761538461538462
aF0.720203421174295
aF0.9437500000000001
aF0.2852402745995424
aF0.1445887445887446
aF0.0
aF0.6057142857142856
aF0.0
aF0.0
aF0.34500000000000003
aF0.08229166666666667
aF0.3084489281210593
aF0.23
aF0.6457142857142858
aF0.6987012987012987
aF0.5843478260869567
aF0.7723214285714287
aF0.7793650793650794
aF0.19523809523809527
aF0.5171717171717172
aF0.4648648648648649
aF0.2177777777777778
aF0.5079738562091504
aF0.5888888888888889
aF0.262648401826484
aF0.5428571428571429
aF0.9750000000000001
aF0.8498044328552804
aF0.47500000000000003
aF0.48421052631578954
aF0.0
aF0.284863523573201
aF0.17373461012311905
aF0.4241071428571429
aF0.40750000000000003
aF0.0
aF0.088
aF0.18571428571428575
aF0.6409429280397023
aF0.36612021857923494
aF0.35297805642633234
aF0.20166666666666666
aF0.3461538461538462
aF0.5072222222222222
aF0.7566666666666667
aF0.37435897435897436
aF0.3676190476190476
aF0.14413646055437102
aF0.570909090909091
aF0.9631578947368422
aF0.968421052631579
aF0.9612903225806452
aF0.3428571428571429
aF0.6940092165898617
aF0.8863636363636364
aF0.4761904761904762
aF0.6917073170731708
aF0.5363363363363363
aF0.6060889929742389
aF0.19829787234042554
aF0.2233250620347395
aF0.9583333333333334
aF0.3478260869565218
aF0.8590361445783133
aF0.9333333333333333
aF0.6404761904761904
aF0.4253246753246754
aF0.7672811059907835
aF0.44126984126984126
aF0.5722943722943723
aF0.36670870113493065
aF0.6349726775956284
aF0.6016835016835017
aF0.34931506849315075
aF0.15329768270944744
aF0.7250000000000001
aF0.3187214611872146
aF0.9619047619047619
aF0.9429951690821257
aF0.19330357142857146
aF0.31757575757575757
aF0.42770562770562776
aF0.9571428571428573
aF0.4333333333333334
aF0.6714285714285714
aF0.3462406015037594
aF0.5810810810810811
aF0.0
aF0.41642512077294686
aF0.7814285714285715
aF0.3353535353535354
aF0.3733333333333333
aF0.0
aF0.16781609195402297
aF0.7440860215053763
aF0.3121212121212122
aF0.9428571428571431
aF0.6052631578947368
aF0.21414141414141416
aF0.4540540540540541
aF0.7841269841269841
aF0.45094736842105265
aF0.0
aF0.21414141414141416
aF0.9538461538461539
aF0.2815126050420168
aF0.8188585607940447
aF0.16333333333333333
aF0.24390243902439027
aF0.29615384615384616
aF0.47719298245614045
aF0.1672316384180791
aF0.7108225108225108
aF0.6583237657864524
aF0.6685714285714286
aF0.18745098039215688
aF0.0
aF0.34400000000000003
aF0.9520000000000001
aF0.25280701754385965
aF0.9857142857142859
aF0.734301270417423
aF0.7067226890756302
aF0.671473354231975
aF0.8349745331069609
aF0.22961460446247464
aF0.6266666666666667
aF0.4995215311004786
aF0.9529411764705883
aF0.5111111111111111
aF0.91441647597254
aF0.7938311688311688
aF0.19333333333333333
aF0.5776744186046513
aF0.5255255255255256
aF0.7631313131313131
aF0.854858934169279
aF0.9764705882352942
aF0.9096774193548389
aF0.9251633986928105
aF0.38785529715762274
aF0.9815384615384616
aF0.9647058823529413
aF0.972972972972973
aF0.1980952380952381
aF0.16
aF0.21142857142857147
aF0.3790909090909091
aF0.56
aF0.1431693989071038
aF0.6742857142857143
aF0.7627272727272727
aF0.2873949579831933
aF0.7157894736842106
aF0.15721925133689843
aF0.7580246913580247
aF0.40574712643678157
aF0.6898496240601504
aF0.6201680672268908
aF0.9428571428571428
aF0.8297297297297298
aF0.18467023172905528
aF0.9285714285714287
aF0.6306493506493507
aF0.6466666666666667
aF0.9652173913043479
aF0.9583333333333334
aF0.6058823529411764
aF0.3166666666666667
aF0.24444444444444446
aF0.7234299516908214
aF0.35263157894736846
aF0.2723214285714286
aF0.7873949579831934
aF0.5843478260869567
aF0.40793650793650793
aF0.5
aF0.22095959595959597
aF0.0
aF0.0
aF0.9333333333333333
aF0.8894736842105263
aF0.5337995337995338
aF0.45
aF0.19478260869565217
aF0.43563636363636365
aF0.727659574468085
aF0.8294642857142859
aF0.9625
aF0.39371069182389934
aF0.9523809523809526
aF0.2603921568627451
aF0.1264069264069264
aF0.4925373134328359
aF0.24000000000000002
aF0.4640000000000001
aF0.9214285714285716
aF0.5821627647714605
aF0.3734767025089606
aF0.6761578044596913
aF0.61
aF0.4702702702702703
aF0.7540136054421769
aF0.5127371273712737
aF0.3238095238095238
aF0.5666666666666667
aF0.5512605042016807
aF0.465625
aF0.7733333333333333
aF0.4736842105263158
aF0.5111737089201878
aF0.392
aF0.4114285714285715
aF0.8631111111111112
aF0.6
aF0.625
aF0.20166666666666666
aF0.37531914893617024
aF0.7672727272727273
aF0.5316239316239316
aF0.8323809523809524
aF0.5972222222222222
aF0.5328165374677003
aF0.7018181818181819
aF0.67
aF0.5029810298102981
aF0.6317073170731707
aF0.44285714285714295
aF0.5663636363636364
aF0.35490909090909095
aF0.8301587301587302
aF0.06682027649769585
aF0.6865800865800865
aF0.19333333333333333
aF0.2785714285714286
aF0.0
aF0.39003359462486004
aF0.5723076923076924
aF0.42401372212692967
aF0.4241071428571429
aF0.16904761904761906
aF0.3282051282051282
aF0.6487179487179487
aF0.5527272727272728
aF0.3534065934065934
aF0.945945945945946
aF0.5706563706563708
aF0.5708333333333333
aF0.9483870967741936
aF0.0
aF0.29915966386554627
aF0.6563279857397505
aF0.9333333333333333
aF0.5552975326560232
aF0.7073995771670192
aF0.5323636363636365
aF0.8239455782312926
aF0.8290598290598291
aF0.9714285714285715
aF0.6108108108108108
aF0.8190476190476191
aF0.9555555555555556
aF0.4014254385964912
aF0.6333333333333333
aF0.842929292929293
aF0.3710526315789474
aF0.052121212121212124
aF0.39567567567567574
aF0.5733333333333334
aF0.5650574712643679
aF0.5452380952380953
aF0.484375
aF0.5804597701149425
aF0.661904761904762
aF0.5116279069767442
aF0.3575757575757576
aF0.057725490196078436
aF0.7081339712918662
aF0.2885714285714286
aF0.3612794612794613
aF0.9433962264150944
aF0.31317829457364343
aF0.6410256410256412
aF0.3365231259968102
aF0.8952380952380953
aF0.6917771883289126
aF0.45294117647058824
aF0.5869767441860466
aF0.9155555555555557
aF0.9777777777777779
aF0.1445887445887446
aF0.690453834115806
aF0.6400000000000001
aF0.7571059431524548
aF0.184
aF0.5716666666666668
aF0.8746291959406715
aF0.9213186813186813
aF0.9811320754716981
aF0.9500000000000001
aF0.7505454545454545
aF0.4121904761904762
aF0.9050505050505051
aF0.5603686635944701
aF0.568421052631579
aF0.5668831168831169
aF0.9304347826086957
aF0.601814882032668
aF0.9764705882352942
aF0.9500000000000001
aF0.21142857142857147
aF0.524646781789639
aF0.8538461538461539
aF0.33186813186813185
aF0.44473684210526315
aF0.16945454545454547
aF0.9636363636363636
aF0.3726315789473684
aF0.2794871794871795
aF0.8114081996434938
aF0.4057142857142858
aF0.3785714285714286
aF0.6681081081081082
aF0.6649122807017545
aF0.8276422764227642
aF0.5492063492063491
aF0.8676328502415459
aF0.488888888888889
aF0.0
aF0.656140350877193
aF0.4074074074074074
aF0.776231884057971
aF0.9680000000000001
aF0.4750000000000001
aF0.4986666666666667
aF0.33095238095238094
aF0.23454545454545456
aF0.26553191489361705
aF0.28571428571428575
aF0.06825870646766169
aF0.46006493506493507
aF0.5846994535519127
aF0.2858333333333334
aF0.25641025641025644
aF0.7921568627450981
aF0.8542857142857143
aF0.6926406926406926
aF0.4398929049531459
aF0.4108932461873639
aF0.7866209262435677
aF0.5012935323383085
aF0.20000000000000004
aF0.8285714285714286
aF0.9391304347826087
aF0.3394957983193278
aF0.22073529411764706
aF0.2953341740226986
aF0.4867924528301887
aF0.416969696969697
aF0.6462745098039216
aF0.3386554621848739
aF0.27268907563025213
aF0.34800000000000003
aF0.8543946932006634
aF0.3831021437578815
aF0.5268398268398269
aF0.5860576923076923
aF0.9571428571428573
aF0.4216450216450217
aF0.634873949579832
aF0.2555984555984556
aF0.7648033126293997
aF0.9548387096774195
aF0.3224806201550388
aF0.9285714285714286
aF0.0
aF0.3216666666666667
aF0.3450892857142857
aF0.16
aF0.7070422535211268
aF0.2815126050420168
aF0.6571794871794872
aF0.32666666666666666
aF0.6175438596491228
aF0.5763656633221851
aF0.582857142857143
aF0.0
aF0.9407407407407408
aF0.7290322580645161
aF0.7725490196078431
aF0.8053763440860214
aF0.48947368421052634
aF0.2733990147783251
aF0.4249684741488021
aF0.7476923076923077
aF0.34461538461538466
aF0.5018181818181819
aF0.9142857142857144
aF0.22678951098511693
aF0.5852526926263464
aF0.7028828828828829
aF0.45263157894736844
aF0.4986301369863014
aF0.6887565152643337
aF0.9538461538461539
aF0.9754385964912281
aF0.6361904761904762
aF0.8014842300556586
aF0.835427807486631
aF0.5508928571428572
aF0.9470588235294118
aF0.49851116625310177
aF0.28809523809523807
aF0.7272490221642764
aF0.46896551724137936
aF0.5496969696969698
aF0.1934640522875817
aF0.508080808080808
aF0.9400000000000002
aF0.09739952718676123
aF0.3654545454545455
aF0.4885245901639345
aF0.8142076502732241
aF0.5108771929824562
aF0.26500000000000007
aF0.72
aF0.9538461538461539
aF0.6967320261437908
aF0.6219512195121951
aF0.0
aF0.41501501501501503
aF0.2875
aF0.0
aF0.37401129943502825
aF0.674074074074074
aF0.7
aF0.9483870967741937
aF0.28
aF0.5047619047619047
aF0.8390804597701149
aF0.7444444444444445
aF0.3713520749665328
aF0.12105263157894737
aF0.0
aF0.24000000000000002
aF0.627188940092166
aF0.4033333333333333
aF0.05314009661835749
aF0.2752380952380953
aF0.37098039215686274
aF0.32833723653395785
aF0.3776785714285715
aF0.7655813953488373
aF0.6055555555555556
aF0.31851851851851853
aF0.6423076923076924
aF0.5512987012987013
aF0.5890909090909091
aF0.6415300546448087
aF0.7906150919467343
aF0.3439703153988869
aF0.5035353535353535
aF0.7154337899543379
aF0.30196078431372547
aF0.21318681318681323
aF0.7753289473684211
aF0.9428571428571428
aF0.9761904761904763
aF0.3148148148148148
aF0.45301379811183734
aF0.5932075471698114
aF0.4
aF0.8457142857142859
aF0.3614973262032086
aF0.7005050505050505
aF0.24571428571428572
aF0.4409090909090909
aF0.9225614296351452
aF0.09666666666666666
aF0.27003367003367007
aF0.46153846153846156
aF0.7707692307692308
aF0.6053333333333333
aF0.5503267973856208
aF0.12000000000000001
aF0.9800000000000001
aF0.7100000000000001
aF0.9600000000000001
aF0.4666666666666667
aF0.5514285714285715
aF0.4583732057416268
aF0.2977777777777778
aF0.41055555555555556
aF0.6333333333333333
aF0.25365853658536586
aF0.6315398886827459
aF0.5006392694063927
aF0.5603686635944701
aF0.5764705882352942
aF0.40772946859903386
aF0.9791044776119403
aF0.8102564102564103
aF0.5916305916305917
aF0.44583333333333336
aF0.7754464285714286
aF0.9789473684210527
aF0.8246031746031748
aF0.9703703703703704
aF0.9703703703703705
aF0.8594594594594596
aF0.4075268817204301
aF0.3488888888888889
aF0.4755555555555556
aF0.6808333333333334
aF0.49090909090909096
aF0.3438356164383562
aF0.7296969696969697
aF0.8482539682539683
aF0.5333333333333334
aF0.6002442002442003
aF0.5444444444444445
aF0.6552380952380953
aF0.4666666666666667
aF0.7485380116959065
aF0.7689223057644111
aF0.6260869565217391
aF0.7361904761904763
aF0.8122448979591838
aF0.6865800865800865
aF0.3534065934065934
aF0.668217054263566
aF0.09666666666666666
aF0.08070175438596491
aF0.4267281105990784
aF0.7054545454545456
aF0.49615384615384617
aF0.3523809523809524
aF0.5164835164835165
aF0.40695652173913044
aF0.20527472527472532
aF0.27999999999999997
aF0.5228327228327229
aF0.2983333333333334
aF0.36898263027295286
aF0.6972027972027973
aF0.26625258799171847
aF0.22524038461538465
aF0.48727272727272736
aF0.24230769230769234
aF0.4662004662004663
aF0.8169642857142858
aF0.4251131221719458
aF0.0
aF0.2630797773654917
aF0.6494969818913482
aF0.4464237516869097
aF0.9492537313432836
aF0.9007803790412487
aF0.9578947368421054
aF0.25213930348258706
aF0.7152542372881356
aF0.27181467181467184
aF0.13457556935817808
aF0.41501501501501503
aF0.23333333333333334
aF0.4
aF0.9600000000000001
aF0.43940620782726053
aF0.2717532467532468
aF0.8727891156462586
aF0.324561403508772
aF0.8346666666666667
aa(lp3
F0.41163636363636363
aF0.9161290322580646
aF0.6861538461538461
aF0.37428571428571433
aF0.7200000000000001
aF0.7
aF0.6987012987012987
aF0.6663461538461539
aF0.1847001223990208
aF0.6345381526104419
aF0.9081081081081082
aF0.16898395721925136
aF0.7485714285714287
aF0.9657142857142857
aF0.5610576923076923
aF0.5177489177489178
aF0.6835497835497835
aF0.4149882903981265
aF0.32713178294573647
aF0.7000000000000001
aF0.5314893617021277
aF0.5504225352112676
aF0.551575456053068
aF0.4842105263157895
aF0.25934065934065936
aF0.9274725274725275
aF0.8874418604651162
aF0.6777777777777778
aF0.18272727272727274
aF0.17045454545454547
aF0.5637362637362637
aF0.11176470588235295
aF0.2433862433862434
aF0.6027079303675049
aF0.3764705882352941
aF0.3
aF0.24458333333333335
aF0.433201581027668
aF0.6099865047233468
aF0.685989010989011
aF0.53
aF0.3362637362637363
aF0.15984313725490198
aF0.36179104477611945
aF0.3575
aF0.08851063829787234
aF0.14847374847374847
aF0.5772549019607843
aF0.5640947288006112
aF0.19111111111111112
aF0.08930232558139535
aF0.26924564796905226
aF0.44110576923076933
aF0.391008991008991
aF0.7834782608695652
aF0.5863829787234044
aF0.5421188630490956
aF0.6048265460030167
aF0.66
aF0.4612244897959184
aF0.9529411764705883
aF0.7931914893617021
aF0.5524904214559386
aF0.9473684210526316
aF0.9448275862068967
aF0.64
aF0.9448275862068967
aF0.8387878787878789
aF0.34928229665071775
aF0.8333333333333334
aF0.5744505494505495
aF0.4871794871794872
aF0.14074074074074078
aF0.7592442645074224
aF0.7665454545454545
aF0.9058823529411766
aF0.22432432432432434
aF0.7972972972972974
aF0.7957219251336898
aF0.5202702702702703
aF0.4222222222222222
aF0.14761904761904762
aF0.5189048239895697
aF0.932
aF0.29128205128205126
aF0.9105263157894737
aF0.22
aF0.07380952380952381
aF0.38
aF0.5508928571428572
aF0.13395784543325528
aF0.2048048048048048
aF0.4178571428571429
aF0.47575757575757577
aF0.9600000000000001
aF0.7605442176870748
aF0.5353535353535354
aF0.3157894736842105
aF0.3683728036669214
aF0.6974774774774775
aF0.28809523809523807
aF0.520952380952381
aF0.5017369727047146
aF0.5968253968253969
aF0.38395721925133697
aF0.4785714285714286
aF0.7356521739130436
aF0.6973684210526316
aF0.8076040172166429
aF0.29950248756218906
aF0.9600000000000001
aF0.6276094276094277
aF0.23661971830985917
aF0.18173913043478263
aF0.48421052631578954
aF0.37248677248677253
aF0.40952380952380957
aF0.7997300944669365
aF0.7666666666666666
aF0.2778467908902692
aF0.4125541125541126
aF0.6528138528138528
aF0.7294117647058824
aF0.64
aF0.4666666666666667
aF0.4553846153846155
aF0.05866666666666667
aF0.6375000000000001
aF0.08851063829787234
aF0.31649928263988525
aF0.5480519480519481
aF0.23783783783783785
aF0.9163636363636364
aF0.6632996632996634
aF0.352020202020202
aF0.40750000000000003
aF0.8368421052631579
aF0.6963680387409202
aF0.6663829787234044
aF0.2994535519125683
aF0.7000000000000001
aF0.9225806451612903
aF0.8032727272727274
aF0.6243451463790448
aF0.7375
aF0.11142857142857143
aF0.7703703703703704
aF0.39636363636363636
aF0.23243243243243245
aF0.6969363707776906
aF0.4548387096774194
aF0.5857142857142857
aF0.48500000000000004
aF0.39562841530054643
aF0.4207792207792208
aF0.5195294117647059
aF0.355421686746988
aF0.6687969924812031
aF0.4608695652173913
aF0.7102998696219036
aF0.43863636363636366
aF0.6496969696969697
aF0.5193333333333333
aF0.6021943573667712
aF0.6380952380952382
aF0.4758620689655173
aF0.3428184281842819
aF0.47164179104477616
aF0.32307692307692315
aF0.31
aF0.5132730015082956
aF0.8057366362451108
aF0.5074358974358975
aF0.3238095238095239
aF0.8468253968253969
aF0.4531017369727048
aF0.306140350877193
aF0.7897435897435897
aF0.22903225806451616
aF0.9393939393939394
aF0.526007326007326
aF0.12605042016806722
aF0.6227272727272728
aF0.6559139784946236
aF0.44000000000000006
aF0.4324882629107981
aF0.8658333333333333
aF0.9771428571428572
aF0.25739750445632803
aF0.9621621621621622
aF0.29810126582278484
aF0.7528138528138529
aF0.6304761904761905
aF0.6511904761904762
aF0.9411764705882354
aF0.42769230769230776
aF0.6799999999999999
aF0.6001470588235295
aF0.76
aF0.826923076923077
aF0.8872727272727273
aF0.15782312925170067
aF0.8285714285714286
aF0.588974358974359
aF0.7018181818181819
aF0.5948936170212767
aF0.5561904761904763
aF0.8346666666666667
aF0.8476964769647697
aF0.9517241379310346
aF0.5601731601731602
aF0.3118279569892473
aF0.6984848484848486
aF0.5882575757575759
aF0.3372294372294372
aF0.6072727272727273
aF0.9657142857142857
aF0.62
aF0.7763440860215054
aF0.23137254901960788
aF0.39111111111111113
aF0.4631578947368422
aF0.40952380952380957
aF0.10510510510510511
aF0.2947916666666667
aF0.46923076923076934
aF0.39999999999999997
aF0.3038095238095238
aF0.7738095238095237
aF0.8314285714285715
aF0.5926863572433193
aF0.6796252927400468
aF0.8107142857142858
aF0.5506912442396314
aF0.4114285714285715
aF0.8609756097560977
aF0.09330143540669857
aF0.4305555555555556
aF0.19264069264069267
aF0.05789473684210527
aF0.2711915535444947
aF0.4595744680851064
aF0.36483516483516487
aF0.09841269841269842
aF0.4984615384615385
aF0.22413273001508296
aF0.36435897435897435
aF0.65
aF0.5972972972972973
aF0.8414634146341464
aF0.42245989304812837
aF0.6408963585434175
aF0.5077477477477478
aF0.8350000000000001
aF0.3390572390572391
aF0.9571428571428573
aF0.4695652173913044
aF0.9384615384615387
aF0.8404802744425386
aF0.605925925925926
aF0.4525641025641026
aF0.3614035087719298
aF0.4742857142857143
aF0.20530503978779846
aF0.4222222222222222
aF0.4287179487179487
aF0.8485714285714286
aF0.5514124293785312
aF0.5457142857142858
aF0.7192982456140351
aF0.8051282051282052
aF0.2808163265306123
aF0.34102564102564104
aF0.8357142857142859
aF0.3103030303030303
aF0.5761786600496278
aF0.4305555555555556
aF0.8214285714285716
aF0.4093333333333333
aF0.9375
aF0.568974358974359
aF0.6601626016260164
aF0.32032520325203256
aF0.3258312020460359
aF0.1802020202020202
aF0.6911371237458194
aF0.46372847011144885
aF0.644
aF0.9692307692307693
aF0.9555555555555556
aF0.9473684210526316
aF0.25798319327731095
aF0.9
aF0.570909090909091
aF0.1838805970149254
aF0.2634631317315659
aF0.3061032863849765
aF0.7495238095238096
aF0.49206349206349204
aF0.4381962864721486
aF0.8772727272727273
aF0.5467700258397933
aF0.6333333333333334
aF0.46865671641791046
aF0.9771428571428572
aF0.9548387096774195
aF0.5821276595744682
aF0.7239436619718311
aF0.18105263157894738
aF0.6283216783216784
aF0.9222222222222223
aF0.26737739872068234
aF0.5906683480453973
aF0.2844444444444445
aF0.27841191066997517
aF0.6888888888888889
aF0.5840000000000001
aF0.8939393939393939
aF0.08072727272727273
aF0.744
aF0.8311688311688313
aF0.2930571108622621
aF0.5555197421434327
aF0.38415094339622646
aF0.37106382978723407
aF0.4647058823529412
aF0.5367521367521367
aF0.9042424242424243
aF0.7454054054054056
aF0.9400000000000001
aF0.9771428571428572
aF0.8981481481481481
aF0.3616605616605617
aF0.936
aF0.7927272727272727
aF0.9263157894736843
aF0.8939393939393939
aF0.630420168067227
aF0.7098181818181819
aF0.73125
aF0.7953216374269007
aF0.9368421052631579
aF0.9785714285714288
aF0.4008281573498965
aF0.5723076923076923
aF0.4563380281690141
aF0.6061007957559682
aF0.7142857142857144
aF0.9560000000000001
aF0.6504761904761904
aF0.34822521419828645
aF0.5665012406947891
aF0.5810616929698709
aF0.7519125683060109
aF0.6235431235431236
aF0.06733556298773691
aF0.7960061443932412
aF0.6524390243902439
aF0.585763888888889
aF0.5442396313364055
aF0.6730434782608696
aF0.7523809523809524
aF0.7438951756998213
aF0.836949152542373
aF0.6310077519379845
aF0.8493506493506495
aF0.9481481481481482
aF0.745
aF0.868939393939394
aF0.24827586206896557
aF0.8654761904761905
aF0.7720092915214867
aF0.6978991596638655
aF0.702325581395349
aF0.6340740740740741
aF0.7592307692307693
aF0.7222222222222223
aF0.45458333333333334
aF0.9500000000000001
aF0.6102564102564103
aF0.8037523452157599
aF0.7638095238095238
aF0.6205128205128206
aF0.64
aF0.26492374727668844
aF0.7047619047619047
aF0.34285714285714286
aF0.9680000000000002
aF0.5758928571428572
aF0.6357405140758874
aF0.9285714285714287
aF0.5780769230769232
aF0.9620689655172414
aF0.9375
aF0.528110599078341
aF0.9631578947368422
aF0.582775119617225
aF0.7999999999999999
aF0.7284900284900284
aF0.6015151515151516
aF0.9098412698412699
aF0.6424242424242425
aF0.9272727272727275
aF0.9485714285714286
aF0.9285714285714286
aF0.9764705882352942
aF0.9520000000000001
aF0.9500000000000001
aF0.9771428571428572
aF0.16
aF0.9709090909090909
aF0.9657142857142857
aF0.18727272727272729
aF0.4541666666666667
aF0.9520000000000001
aF0.9485714285714286
aF0.225
aF0.8583333333333334
aF0.26644370122630995
aF0.5647058823529412
aF0.951219512195122
aF0.8369953051643193
aF0.7130434782608697
aF0.5285714285714286
aF0.6261904761904762
aF0.7121951219512196
aF0.7091787439613526
aF0.7734576757532282
aF0.6638461538461539
aF0.7291724456773001
aF0.925
aF0.24530892448512584
aF0.12761904761904763
aF0.4736842105263158
aF0.6432432432432433
aF0.22285714285714286
aF0.2235294117647059
aF0.4043360433604336
aF0.15208333333333335
aF0.28549810844892815
aF0.10500000000000001
aF0.6171428571428572
aF0.8129870129870131
aF0.3982608695652174
aF0.8357142857142859
aF0.6238095238095239
aF0.24761904761904763
aF0.5066666666666666
aF0.9513513513513514
aF0.3146666666666667
aF0.4542483660130719
aF0.6911111111111112
aF0.2571689497716895
aF0.6971428571428571
aF0.7404358353510897
aF0.5892857142857144
aF0.47000000000000003
aF0.5578947368421053
aF0.11111111111111112
aF0.3399503722084367
aF0.09309941520467836
aF0.4178571428571429
aF0.49583333333333335
aF0.11025641025641027
aF0.088
aF0.3366197183098592
aF0.6409429280397023
aF0.48322824716267343
aF0.5746081504702195
aF0.3205128205128205
aF0.4012820512820513
aF0.5605555555555556
aF0.7483333333333333
aF0.36483516483516487
aF0.5436363636363637
aF0.20724946695095953
aF0.5843478260869567
aF0.9631578947368422
aF0.9578947368421054
aF0.9155555555555557
aF0.44126984126984126
aF0.8211981566820278
aF0.4181818181818182
aF0.7142857142857144
aF0.8614634146341463
aF0.5309309309309309
aF0.6028103044496488
aF0.26401515151515154
aF0.21220159151193638
aF0.9333333333333333
aF0.3474509803921569
aF0.45783132530120485
aF0.9422222222222223
aF0.780952380952381
aF0.4597402597402598
aF0.7640552995391706
aF0.426984126984127
aF0.8129870129870131
aF0.39859484777517573
aF0.6316939890710382
aF0.6632996632996634
aF0.40479452054794524
aF0.28176100628930817
aF0.8375000000000001
aF0.4012820512820513
aF0.9428571428571428
aF0.9814814814814815
aF0.1777777777777778
aF0.28615384615384615
aF0.4216450216450217
aF0.9771428571428572
aF0.5008928571428571
aF0.8894736842105264
aF0.3928571428571429
aF0.5918918918918918
aF0.088
aF0.5053140096618357
aF0.8142857142857144
aF0.4154882154882155
aF0.44666666666666677
aF0.0890909090909091
aF0.24137931034482762
aF0.7311827956989247
aF0.3721739130434783
aF0.9771428571428572
aF0.46842105263157896
aF0.41010101010101013
aF0.5076023391812865
aF0.8682539682539683
aF0.3868421052631579
aF0.0678876678876679
aF0.3121212121212122
aF0.9555555555555557
aF0.4075630252100841
aF0.8317617866004964
aF0.2366666666666667
aF0.3536585365853659
aF0.3576923076923077
aF0.3929824561403509
aF0.3107344632768362
aF0.7047619047619047
aF0.6583237657864524
aF0.6628571428571428
aF0.16853146853146855
aF0.06820512820512821
aF0.4370370370370371
aF0.9520000000000001
aF0.3269406392694064
aF0.9714285714285715
aF0.7787053841500302
aF0.4705882352941177
aF0.5780564263322885
aF0.7185059422750425
aF0.27897227856659906
aF0.9266666666666669
aF0.5757575757575758
aF0.9294117647058824
aF0.6222222222222222
aF0.3333067411248504
aF0.887987012987013
aF0.38666666666666666
aF0.38976744186046514
aF0.6144144144144146
aF0.9545454545454546
aF0.9310344827586208
aF0.8768627450980392
aF0.8967741935483873
aF0.9168300653594771
aF0.26175710594315243
aF0.9692307692307693
aF0.9098412698412699
aF0.9621621621621622
aF0.31884057971014496
aF0.2660714285714286
aF0.26241758241758245
aF0.37
aF0.648
aF0.22295081967213118
aF0.7542857142857144
aF0.5840909090909091
aF0.4134453781512606
aF0.9657142857142857
aF0.15721925133689843
aF0.30486891385767795
aF0.31494252873563217
aF0.7936090225563911
aF0.6655462184873949
aF0.9473684210526316
aF0.8243243243243245
aF0.26524064171123
aF0.9771428571428572
aF0.7740259740259741
aF0.6966666666666667
aF0.9657142857142857
aF0.7275
aF0.5647058823529412
aF0.3075757575757576
aF0.4666666666666667
aF0.22795698924731184
aF0.46315789473684216
aF0.407373271889401
aF0.7550420168067228
aF0.9657142857142857
aF0.4523809523809524
aF0.9714285714285715
aF0.26994949494949494
aF0.11176470588235295
aF0.07344632768361582
aF0.9500000000000001
aF0.9342105263157895
aF0.6013986013986015
aF0.5611111111111111
aF0.31466666666666665
aF0.36483516483516487
aF0.9366666666666668
aF0.8148148148148148
aF0.9600000000000001
aF0.46545454545454557
aF0.9523809523809526
aF0.5001960784313726
aF0.22285714285714286
aF0.5592039800995026
aF0.35000000000000003
aF0.46666666666666673
aF0.9142857142857145
aF0.6668896321070235
aF0.42007168458781363
aF0.7564322469982847
aF0.7000000000000001
aF0.5625000000000001
aF0.8114285714285716
aF0.48834688346883465
aF0.47142857142857153
aF0.5777777777777777
aF0.72
aF0.3207207207207208
aF0.7816666666666667
aF0.5842105263157895
aF0.5055399061032864
aF0.5680000000000001
aF0.4685714285714286
aF0.9333333333333333
aF0.6679802955665024
aF0.5826666666666667
aF0.29000000000000004
aF0.46382978723404256
aF0.8336363636363636
aF0.6512820512820514
aF0.9466666666666668
aF0.4638888888888889
aF0.6170542635658915
aF0.7745454545454545
aF0.8292307692307693
aF0.6016260162601628
aF0.6292682926829268
aF0.6230414746543779
aF0.39272727272727276
aF0.3973333333333333
aF0.9333333333333333
aF0.17875000000000002
aF0.6896103896103896
aF0.31466666666666665
aF0.221903520208605
aF0.08013468013468014
aF0.39003359462486004
aF0.6333333333333333
aF0.5042881646655233
aF0.6776785714285714
aF0.14933333333333332
aF0.8128205128205128
aF0.953846153846154
aF0.5948051948051949
aF0.3971428571428572
aF0.9324324324324325
aF0.6957528957528958
aF0.6625000000000001
aF0.967741935483871
aF0.10952380952380952
aF0.4252100840336135
aF0.7368983957219252
aF0.9666666666666667
aF0.411948051948052
aF0.7027484143763214
aF0.4592885375494071
aF0.8923809523809525
aF0.864957264957265
aF0.9714285714285715
aF0.5918918918918918
aF0.661904761904762
aF0.9600000000000001
aF0.14268041237113405
aF0.6063063063063063
aF0.9454545454545455
aF0.3105263157894737
aF0.04205563413484206
aF0.2565765765765766
aF0.5964285714285714
aF0.55816091954023
aF0.5458791208791209
aF0.5415178571428572
aF0.6540229885057471
aF0.48095238095238096
aF0.3604651162790698
aF0.5196969696969698
aF0.15984313725490198
aF0.7046251993620416
aF0.4161904761904762
aF0.4414141414141414
aF0.9320754716981132
aF0.2755555555555556
aF0.6256410256410257
aF0.41626794258373206
aF0.8825396825396825
aF0.760212201591512
aF0.8107142857142858
aF0.8409302325581395
aF0.8869841269841271
aF0.6471794871794873
aF0.4545454545454546
aF0.6056224899598395
aF0.5022222222222222
aF0.8318658280922432
aF0.3026737967914439
aF0.715
aF0.7078844652615145
aF0.8026373626373627
aF0.6847798742138365
aF0.9611111111111111
aF0.7545454545454545
aF0.4121904761904762
aF0.6611832611832613
aF0.6875576036866359
aF0.40880503144654085
aF0.7246753246753248
aF0.9333333333333333
aF0.5666061705989112
aF0.6190476190476191
aF0.9625
aF0.2028571428571429
aF0.20161725067385447
aF0.6866666666666668
aF0.39516483516483525
aF0.5394736842105263
aF0.2501818181818182
aF0.872982456140351
aF0.36
aF0.34102564102564104
aF0.9045751633986929
aF0.7028571428571428
aF0.5054187192118227
aF0.5371428571428573
aF0.7295454545454545
aF0.7837398373983739
aF0.6476190476190478
aF0.9652173913043479
aF0.6222222222222222
aF0.08851063829787234
aF0.656140350877193
aF0.4074074074074074
aF0.7188405797101449
aF0.8727272727272729
aF0.625
aF0.3373333333333334
aF0.3238095238095238
aF0.1647058823529412
aF0.3269090909090909
aF0.5257142857142858
aF0.17194029850746273
aF0.539935064935065
aF0.5814207650273224
aF0.3575
aF0.4091549295774648
aF0.7860962566844921
aF0.8657142857142858
aF0.570909090909091
aF0.36653279785809906
aF0.26492374727668844
aF0.6912521440823328
aF0.23422885572139304
aF0.26769230769230773
aF0.8238095238095239
aF0.9391304347826087
aF0.33711484593837543
aF0.33985294117647064
aF0.42824716267339225
aF0.47924528301886793
aF0.40969696969696967
aF0.5641830065359478
aF0.2985507246376812
aF0.17690140845070426
aF0.43600000000000005
aF0.8543946932006634
aF0.603783102143758
aF0.6562770562770562
aF0.780048076923077
aF0.8833333333333335
aF0.39910714285714294
aF0.11523809523809525
aF0.3358974358974359
aF0.7387163561076606
aF0.9483870967741936
aF0.508080808080808
aF0.9428571428571431
aF0.1264069264069264
aF0.3166666666666667
aF0.3928571428571429
aF0.44666666666666677
aF0.6514084507042254
aF0.36111111111111116
aF0.5141025641025642
aF0.41160714285714295
aF0.5263157894736843
aF0.4492307692307693
aF0.7085714285714285
aF0.17224489795918368
aF0.9296296296296297
aF0.7827956989247311
aF0.7666666666666666
aF0.610752688172043
aF0.5947368421052631
aF0.39802955665024636
aF0.45882352941176474
aF0.6938461538461539
aF0.48923076923076925
aF0.5090909090909091
aF0.9619047619047619
aF0.38001417434443663
aF0.5852526926263464
aF0.3470270270270271
aF0.5578947368421052
aF0.5612524461839531
aF0.46254653760238273
aF0.7784615384615385
aF0.7512880562060891
aF0.5527272727272728
aF0.696
aF0.8308823529411765
aF0.5571428571428572
aF0.6773109243697478
aF0.5632754342431762
aF0.34640198511166254
aF0.7238591916558019
aF0.6160919540229886
aF0.603030303030303
aF0.25568627450980397
aF0.22564102564102564
aF0.904
aF0.19479905437352246
aF0.4545454545454546
aF0.6251366120218579
aF0.8306010928961748
aF0.5589473684210526
aF0.2585185185185186
aF0.7142857142857142
aF0.7707692307692308
aF0.6888888888888889
aF0.7317073170731708
aF0.09888888888888889
aF0.4666666666666667
aF0.35250000000000004
aF0.05199709513435004
aF0.4576271186440679
aF0.3246913580246914
aF0.7666666666666666
aF0.9483870967741937
aF0.26571428571428574
aF0.5930434782608697
aF0.4128571428571429
aF0.8777777777777778
aF0.4157965194109773
aF0.20777777777777778
aF0.3111111111111111
aF0.1781818181818182
aF0.5248847926267282
aF0.5633333333333335
aF0.046360582306830905
aF0.4484848484848485
aF0.45882352941176474
aF0.3887587822014052
aF0.37351190476190477
aF0.7609302325581395
aF0.6055555555555556
aF0.5787878787878787
aF0.6371794871794872
aF0.38001417434443663
aF0.7505454545454545
aF0.6349726775956284
aF0.7882054533925174
aF0.4771799628942487
aF0.49095607235142114
aF0.7742465753424659
aF0.47058823529411775
aF0.28888888888888886
aF0.5304846274101095
aF0.9591836734693878
aF0.5698412698412699
aF0.38888888888888884
aF0.5603318250377074
aF0.6807547169811321
aF0.5760000000000001
aF0.9542857142857144
aF0.15878787878787878
aF0.3256029684601114
aF0.2752941176470588
aF0.5459119496855347
aF0.9174981384959047
aF0.185
aF0.35016835016835024
aF0.45641025641025645
aF0.8738461538461538
aF0.5494505494505495
aF0.2504575163398693
aF0.21621621621621623
aF0.9400000000000001
aF0.7461224489795919
aF0.9714285714285715
aF0.7083333333333335
aF0.43448275862068975
aF0.22807017543859653
aF0.4085343228200371
aF0.5144444444444445
aF0.6282051282051282
aF0.24878048780487805
aF0.7124304267161411
aF0.3533333333333334
aF0.6746543778801843
aF0.3851851851851852
aF0.08833333333333333
aF0.4284057971014493
aF0.8363433667781495
aF0.30793650793650795
aF0.45882352941176474
aF0.7410714285714287
aF0.8315789473684211
aF0.8246031746031748
aF0.951851851851852
aF0.9000000000000001
aF0.9648648648648649
aF0.33943833943833945
aF0.3444444444444445
aF0.5644444444444445
aF0.48750000000000004
aF0.5503030303030304
aF0.33561643835616445
aF0.8528571428571429
aF0.8711111111111112
aF0.6074074074074074
aF0.5228327228327229
aF0.5333333333333333
aF0.8485714285714285
aF0.5511111111111112
aF0.5529139685476411
aF0.8260651629072683
aF0.6794202898550725
aF0.2785714285714286
aF0.5244897959183673
aF0.5359307359307359
aF0.39516483516483525
aF0.4532299741602067
aF0.08072727272727273
aF0.14341590612777055
aF0.5539170506912443
aF0.6254545454545455
aF0.19461538461538463
aF0.3380952380952381
aF0.6554334554334554
aF0.5843478260869567
aF0.22153846153846157
aF0.49707602339181284
aF0.5811965811965812
aF0.38666666666666666
aF0.43052109181141446
aF0.7776223776223776
aF0.26625258799171847
aF0.33419913419913416
aF0.6315151515151515
aF0.391025641025641
aF0.06302521008403361
aF0.8371428571428572
aF0.49547511312217196
aF0.22285714285714286
aF0.09888888888888889
aF0.21842105263157896
aF0.5149797570850203
aF0.9492537313432836
aF0.889186176142698
aF0.9523809523809524
aF0.3707462686567165
aF0.7887005649717513
aF0.3512820512820513
aF0.19171842650103524
aF0.46
aF0.37
aF0.503225806451613
aF0.93
aF0.5866419294990725
aF0.17402597402597406
aF0.6653061224489796
aF0.12807881773399016
aF0.8880000000000001
aa.